	.section	__TEXT,__text,regular,pure_instructions
	.macosx_version_min 10, 12
	.file	1 "/Users/ericlei/Documents/ImageProcessing/sources" "lodepng.c"
	.file	2 "/Users/ericlei/Documents/ImageProcessing/sources/../includes" "lodepng.h"
	.file	3 "/usr/include/i386" "_types.h"
	.file	4 "/usr/include/sys/_types" "_size_t.h"
	.globl	_lodepng_read32bitInt
	.p2align	4, 0x90
_lodepng_read32bitInt:                  ## @lodepng_read32bitInt
Lfunc_begin0:
	.loc	1 321 0                 ## /Users/ericlei/Documents/ImageProcessing/sources/lodepng.c:321:0
	.cfi_startproc
## BB#0:
	pushq	%rbp
Ltmp0:
	.cfi_def_cfa_offset 16
Ltmp1:
	.cfi_offset %rbp, -16
	movq	%rsp, %rbp
Ltmp2:
	.cfi_def_cfa_register %rbp
	movq	%rdi, -8(%rbp)
Ltmp3:
	.loc	1 322 22 prologue_end   ## /Users/ericlei/Documents/ImageProcessing/sources/lodepng.c:322:22
	movq	-8(%rbp), %rdi
	movzbl	(%rdi), %eax
	.loc	1 322 32 is_stmt 0      ## /Users/ericlei/Documents/ImageProcessing/sources/lodepng.c:322:32
	shll	$24, %eax
	.loc	1 322 42                ## /Users/ericlei/Documents/ImageProcessing/sources/lodepng.c:322:42
	movq	-8(%rbp), %rdi
	movzbl	1(%rdi), %ecx
	.loc	1 322 52                ## /Users/ericlei/Documents/ImageProcessing/sources/lodepng.c:322:52
	shll	$16, %ecx
	.loc	1 322 39                ## /Users/ericlei/Documents/ImageProcessing/sources/lodepng.c:322:39
	orl	%ecx, %eax
	.loc	1 322 62                ## /Users/ericlei/Documents/ImageProcessing/sources/lodepng.c:322:62
	movq	-8(%rbp), %rdi
	movzbl	2(%rdi), %ecx
	.loc	1 322 72                ## /Users/ericlei/Documents/ImageProcessing/sources/lodepng.c:322:72
	shll	$8, %ecx
	.loc	1 322 59                ## /Users/ericlei/Documents/ImageProcessing/sources/lodepng.c:322:59
	orl	%ecx, %eax
	.loc	1 322 80                ## /Users/ericlei/Documents/ImageProcessing/sources/lodepng.c:322:80
	movq	-8(%rbp), %rdi
	movzbl	3(%rdi), %ecx
	.loc	1 322 78                ## /Users/ericlei/Documents/ImageProcessing/sources/lodepng.c:322:78
	orl	%ecx, %eax
	.loc	1 322 3                 ## /Users/ericlei/Documents/ImageProcessing/sources/lodepng.c:322:3
	popq	%rbp
	retq
Ltmp4:
Lfunc_end0:
	.cfi_endproc

	.globl	_lodepng_load_file
	.p2align	4, 0x90
_lodepng_load_file:                     ## @lodepng_load_file
Lfunc_begin1:
	.loc	1 388 0 is_stmt 1       ## /Users/ericlei/Documents/ImageProcessing/sources/lodepng.c:388:0
	.cfi_startproc
## BB#0:
	pushq	%rbp
Ltmp5:
	.cfi_def_cfa_offset 16
Ltmp6:
	.cfi_offset %rbp, -16
	movq	%rsp, %rbp
Ltmp7:
	.cfi_def_cfa_register %rbp
	subq	$48, %rsp
	movq	%rdi, -16(%rbp)
	movq	%rsi, -24(%rbp)
	movq	%rdx, -32(%rbp)
Ltmp8:
	.loc	1 389 32 prologue_end   ## /Users/ericlei/Documents/ImageProcessing/sources/lodepng.c:389:32
	movq	-32(%rbp), %rdi
	.loc	1 389 15 is_stmt 0      ## /Users/ericlei/Documents/ImageProcessing/sources/lodepng.c:389:15
	callq	_lodepng_filesize
	.loc	1 389 8                 ## /Users/ericlei/Documents/ImageProcessing/sources/lodepng.c:389:8
	movq	%rax, -40(%rbp)
Ltmp9:
	.loc	1 390 12 is_stmt 1      ## /Users/ericlei/Documents/ImageProcessing/sources/lodepng.c:390:12
	cmpq	$0, -40(%rbp)
Ltmp10:
	.loc	1 390 7 is_stmt 0       ## /Users/ericlei/Documents/ImageProcessing/sources/lodepng.c:390:7
	jge	LBB1_2
## BB#1:
Ltmp11:
	.loc	1 390 17 discriminator 1 ## /Users/ericlei/Documents/ImageProcessing/sources/lodepng.c:390:17
	movl	$78, -4(%rbp)
	jmp	LBB1_6
Ltmp12:
LBB1_2:
	.loc	1 391 22 is_stmt 1      ## /Users/ericlei/Documents/ImageProcessing/sources/lodepng.c:391:22
	movq	-40(%rbp), %rax
	.loc	1 391 4 is_stmt 0       ## /Users/ericlei/Documents/ImageProcessing/sources/lodepng.c:391:4
	movq	-24(%rbp), %rcx
	.loc	1 391 12                ## /Users/ericlei/Documents/ImageProcessing/sources/lodepng.c:391:12
	movq	%rax, (%rcx)
	.loc	1 393 49 is_stmt 1      ## /Users/ericlei/Documents/ImageProcessing/sources/lodepng.c:393:49
	movq	-40(%rbp), %rdi
	.loc	1 393 26 is_stmt 0      ## /Users/ericlei/Documents/ImageProcessing/sources/lodepng.c:393:26
	callq	_lodepng_malloc
	.loc	1 393 4                 ## /Users/ericlei/Documents/ImageProcessing/sources/lodepng.c:393:4
	movq	-16(%rbp), %rcx
	.loc	1 393 8                 ## /Users/ericlei/Documents/ImageProcessing/sources/lodepng.c:393:8
	movq	%rax, (%rcx)
Ltmp13:
	.loc	1 394 9 is_stmt 1       ## /Users/ericlei/Documents/ImageProcessing/sources/lodepng.c:394:9
	movq	-16(%rbp), %rax
	.loc	1 394 7 is_stmt 0       ## /Users/ericlei/Documents/ImageProcessing/sources/lodepng.c:394:7
	cmpq	$0, (%rax)
	.loc	1 394 14                ## /Users/ericlei/Documents/ImageProcessing/sources/lodepng.c:394:14
	jne	LBB1_5
## BB#3:
	.loc	1 394 22 discriminator 1 ## /Users/ericlei/Documents/ImageProcessing/sources/lodepng.c:394:22
	cmpq	$0, -40(%rbp)
Ltmp14:
	.loc	1 394 6 discriminator 1 ## /Users/ericlei/Documents/ImageProcessing/sources/lodepng.c:394:6
	jle	LBB1_5
## BB#4:
Ltmp15:
	.loc	1 394 27 discriminator 2 ## /Users/ericlei/Documents/ImageProcessing/sources/lodepng.c:394:27
	movl	$83, -4(%rbp)
	jmp	LBB1_6
Ltmp16:
LBB1_5:
	.loc	1 396 31 is_stmt 1      ## /Users/ericlei/Documents/ImageProcessing/sources/lodepng.c:396:31
	movq	-16(%rbp), %rax
	.loc	1 396 30 is_stmt 0      ## /Users/ericlei/Documents/ImageProcessing/sources/lodepng.c:396:30
	movq	(%rax), %rdi
	.loc	1 396 44                ## /Users/ericlei/Documents/ImageProcessing/sources/lodepng.c:396:44
	movq	-40(%rbp), %rsi
	.loc	1 396 50                ## /Users/ericlei/Documents/ImageProcessing/sources/lodepng.c:396:50
	movq	-32(%rbp), %rdx
	.loc	1 396 10                ## /Users/ericlei/Documents/ImageProcessing/sources/lodepng.c:396:10
	callq	_lodepng_buffer_file
	.loc	1 396 3                 ## /Users/ericlei/Documents/ImageProcessing/sources/lodepng.c:396:3
	movl	%eax, -4(%rbp)
LBB1_6:
	.loc	1 397 1 is_stmt 1       ## /Users/ericlei/Documents/ImageProcessing/sources/lodepng.c:397:1
	movl	-4(%rbp), %eax
	addq	$48, %rsp
	popq	%rbp
	retq
Ltmp17:
Lfunc_end1:
	.cfi_endproc

	.p2align	4, 0x90
_lodepng_filesize:                      ## @lodepng_filesize
Lfunc_begin2:
	.loc	1 352 0                 ## /Users/ericlei/Documents/ImageProcessing/sources/lodepng.c:352:0
	.cfi_startproc
## BB#0:
	pushq	%rbp
Ltmp18:
	.cfi_def_cfa_offset 16
Ltmp19:
	.cfi_offset %rbp, -16
	movq	%rsp, %rbp
Ltmp20:
	.cfi_def_cfa_register %rbp
	subq	$48, %rsp
	leaq	L_.str.85(%rip), %rsi
	movq	%rdi, -16(%rbp)
Ltmp21:
	.loc	1 355 16 prologue_end   ## /Users/ericlei/Documents/ImageProcessing/sources/lodepng.c:355:16
	movq	-16(%rbp), %rdi
	.loc	1 355 10 is_stmt 0      ## /Users/ericlei/Documents/ImageProcessing/sources/lodepng.c:355:10
	callq	_fopen
	.loc	1 355 8                 ## /Users/ericlei/Documents/ImageProcessing/sources/lodepng.c:355:8
	movq	%rax, -24(%rbp)
Ltmp22:
	.loc	1 356 7 is_stmt 1       ## /Users/ericlei/Documents/ImageProcessing/sources/lodepng.c:356:7
	cmpq	$0, -24(%rbp)
Ltmp23:
	.loc	1 356 6 is_stmt 0       ## /Users/ericlei/Documents/ImageProcessing/sources/lodepng.c:356:6
	jne	LBB2_2
## BB#1:
Ltmp24:
	.loc	1 356 13 discriminator 1 ## /Users/ericlei/Documents/ImageProcessing/sources/lodepng.c:356:13
	movq	$-1, -8(%rbp)
	jmp	LBB2_7
Ltmp25:
LBB2_2:
	xorl	%eax, %eax
	movl	%eax, %esi
	movl	$2, %edx
Ltmp26:
	.loc	1 358 12 is_stmt 1      ## /Users/ericlei/Documents/ImageProcessing/sources/lodepng.c:358:12
	movq	-24(%rbp), %rdi
	.loc	1 358 6 is_stmt 0       ## /Users/ericlei/Documents/ImageProcessing/sources/lodepng.c:358:6
	callq	_fseek
	.loc	1 358 31                ## /Users/ericlei/Documents/ImageProcessing/sources/lodepng.c:358:31
	cmpl	$0, %eax
Ltmp27:
	.loc	1 358 6                 ## /Users/ericlei/Documents/ImageProcessing/sources/lodepng.c:358:6
	je	LBB2_4
## BB#3:
Ltmp28:
	.loc	1 360 12 is_stmt 1      ## /Users/ericlei/Documents/ImageProcessing/sources/lodepng.c:360:12
	movq	-24(%rbp), %rdi
	.loc	1 360 5 is_stmt 0       ## /Users/ericlei/Documents/ImageProcessing/sources/lodepng.c:360:5
	callq	_fclose
	.loc	1 361 5 is_stmt 1       ## /Users/ericlei/Documents/ImageProcessing/sources/lodepng.c:361:5
	movq	$-1, -8(%rbp)
	movl	%eax, -36(%rbp)         ## 4-byte Spill
	jmp	LBB2_7
Ltmp29:
LBB2_4:
	.loc	1 364 16                ## /Users/ericlei/Documents/ImageProcessing/sources/lodepng.c:364:16
	movq	-24(%rbp), %rdi
	.loc	1 364 10 is_stmt 0      ## /Users/ericlei/Documents/ImageProcessing/sources/lodepng.c:364:10
	callq	_ftell
	movabsq	$9223372036854775807, %rdi ## imm = 0x7FFFFFFFFFFFFFFF
	.loc	1 364 8                 ## /Users/ericlei/Documents/ImageProcessing/sources/lodepng.c:364:8
	movq	%rax, -32(%rbp)
Ltmp30:
	.loc	1 366 11 is_stmt 1      ## /Users/ericlei/Documents/ImageProcessing/sources/lodepng.c:366:11
	cmpq	%rdi, -32(%rbp)
Ltmp31:
	.loc	1 366 6 is_stmt 0       ## /Users/ericlei/Documents/ImageProcessing/sources/lodepng.c:366:6
	jne	LBB2_6
## BB#5:
Ltmp32:
	.loc	1 366 29 discriminator 1 ## /Users/ericlei/Documents/ImageProcessing/sources/lodepng.c:366:29
	movq	$-1, -32(%rbp)
Ltmp33:
LBB2_6:
	.loc	1 368 10 is_stmt 1      ## /Users/ericlei/Documents/ImageProcessing/sources/lodepng.c:368:10
	movq	-24(%rbp), %rdi
	.loc	1 368 3 is_stmt 0       ## /Users/ericlei/Documents/ImageProcessing/sources/lodepng.c:368:3
	callq	_fclose
	.loc	1 369 10 is_stmt 1      ## /Users/ericlei/Documents/ImageProcessing/sources/lodepng.c:369:10
	movq	-32(%rbp), %rdi
	.loc	1 369 3 is_stmt 0       ## /Users/ericlei/Documents/ImageProcessing/sources/lodepng.c:369:3
	movq	%rdi, -8(%rbp)
	movl	%eax, -40(%rbp)         ## 4-byte Spill
LBB2_7:
	.loc	1 370 1 is_stmt 1       ## /Users/ericlei/Documents/ImageProcessing/sources/lodepng.c:370:1
	movq	-8(%rbp), %rax
	addq	$48, %rsp
	popq	%rbp
	retq
Ltmp34:
Lfunc_end2:
	.cfi_endproc

	.p2align	4, 0x90
_lodepng_malloc:                        ## @lodepng_malloc
Lfunc_begin3:
	.loc	1 64 0                  ## /Users/ericlei/Documents/ImageProcessing/sources/lodepng.c:64:0
	.cfi_startproc
## BB#0:
	pushq	%rbp
Ltmp35:
	.cfi_def_cfa_offset 16
Ltmp36:
	.cfi_offset %rbp, -16
	movq	%rsp, %rbp
Ltmp37:
	.cfi_def_cfa_register %rbp
	subq	$16, %rsp
	movq	%rdi, -8(%rbp)
Ltmp38:
	.loc	1 65 17 prologue_end    ## /Users/ericlei/Documents/ImageProcessing/sources/lodepng.c:65:17
	movq	-8(%rbp), %rdi
	.loc	1 65 10 is_stmt 0       ## /Users/ericlei/Documents/ImageProcessing/sources/lodepng.c:65:10
	callq	_malloc
	.loc	1 65 3                  ## /Users/ericlei/Documents/ImageProcessing/sources/lodepng.c:65:3
	addq	$16, %rsp
	popq	%rbp
	retq
Ltmp39:
Lfunc_end3:
	.cfi_endproc

	.p2align	4, 0x90
_lodepng_buffer_file:                   ## @lodepng_buffer_file
Lfunc_begin4:
	.loc	1 374 0 is_stmt 1       ## /Users/ericlei/Documents/ImageProcessing/sources/lodepng.c:374:0
	.cfi_startproc
## BB#0:
	pushq	%rbp
Ltmp40:
	.cfi_def_cfa_offset 16
Ltmp41:
	.cfi_offset %rbp, -16
	movq	%rsp, %rbp
Ltmp42:
	.cfi_def_cfa_register %rbp
	subq	$64, %rsp
	leaq	L_.str.85(%rip), %rax
	movq	%rdi, -16(%rbp)
	movq	%rsi, -24(%rbp)
	movq	%rdx, -32(%rbp)
Ltmp43:
	.loc	1 377 16 prologue_end   ## /Users/ericlei/Documents/ImageProcessing/sources/lodepng.c:377:16
	movq	-32(%rbp), %rdi
	.loc	1 377 10 is_stmt 0      ## /Users/ericlei/Documents/ImageProcessing/sources/lodepng.c:377:10
	movq	%rax, %rsi
	callq	_fopen
	.loc	1 377 8                 ## /Users/ericlei/Documents/ImageProcessing/sources/lodepng.c:377:8
	movq	%rax, -40(%rbp)
Ltmp44:
	.loc	1 378 7 is_stmt 1       ## /Users/ericlei/Documents/ImageProcessing/sources/lodepng.c:378:7
	cmpq	$0, -40(%rbp)
Ltmp45:
	.loc	1 378 6 is_stmt 0       ## /Users/ericlei/Documents/ImageProcessing/sources/lodepng.c:378:6
	jne	LBB4_2
## BB#1:
Ltmp46:
	.loc	1 378 13 discriminator 1 ## /Users/ericlei/Documents/ImageProcessing/sources/lodepng.c:378:13
	movl	$78, -4(%rbp)
	jmp	LBB4_5
Ltmp47:
LBB4_2:
	movl	$1, %eax
	movl	%eax, %esi
	.loc	1 380 20 is_stmt 1      ## /Users/ericlei/Documents/ImageProcessing/sources/lodepng.c:380:20
	movq	-16(%rbp), %rdi
	.loc	1 380 28 is_stmt 0      ## /Users/ericlei/Documents/ImageProcessing/sources/lodepng.c:380:28
	movq	-24(%rbp), %rdx
	.loc	1 380 34                ## /Users/ericlei/Documents/ImageProcessing/sources/lodepng.c:380:34
	movq	-40(%rbp), %rcx
	.loc	1 380 14                ## /Users/ericlei/Documents/ImageProcessing/sources/lodepng.c:380:14
	callq	_fread
	.loc	1 380 12                ## /Users/ericlei/Documents/ImageProcessing/sources/lodepng.c:380:12
	movq	%rax, -48(%rbp)
	.loc	1 381 10 is_stmt 1      ## /Users/ericlei/Documents/ImageProcessing/sources/lodepng.c:381:10
	movq	-40(%rbp), %rdi
	.loc	1 381 3 is_stmt 0       ## /Users/ericlei/Documents/ImageProcessing/sources/lodepng.c:381:3
	callq	_fclose
Ltmp48:
	.loc	1 383 7 is_stmt 1       ## /Users/ericlei/Documents/ImageProcessing/sources/lodepng.c:383:7
	movq	-48(%rbp), %rcx
	.loc	1 383 16 is_stmt 0      ## /Users/ericlei/Documents/ImageProcessing/sources/lodepng.c:383:16
	cmpq	-24(%rbp), %rcx
Ltmp49:
	.loc	1 383 7                 ## /Users/ericlei/Documents/ImageProcessing/sources/lodepng.c:383:7
	movl	%eax, -52(%rbp)         ## 4-byte Spill
	je	LBB4_4
## BB#3:
Ltmp50:
	.loc	1 383 25 discriminator 1 ## /Users/ericlei/Documents/ImageProcessing/sources/lodepng.c:383:25
	movl	$78, -4(%rbp)
	jmp	LBB4_5
Ltmp51:
LBB4_4:
	.loc	1 384 3 is_stmt 1       ## /Users/ericlei/Documents/ImageProcessing/sources/lodepng.c:384:3
	movl	$0, -4(%rbp)
LBB4_5:
	.loc	1 385 1                 ## /Users/ericlei/Documents/ImageProcessing/sources/lodepng.c:385:1
	movl	-4(%rbp), %eax
	addq	$64, %rsp
	popq	%rbp
	retq
Ltmp52:
Lfunc_end4:
	.cfi_endproc

	.globl	_lodepng_save_file
	.p2align	4, 0x90
_lodepng_save_file:                     ## @lodepng_save_file
Lfunc_begin5:
	.loc	1 401 0                 ## /Users/ericlei/Documents/ImageProcessing/sources/lodepng.c:401:0
	.cfi_startproc
## BB#0:
	pushq	%rbp
Ltmp53:
	.cfi_def_cfa_offset 16
Ltmp54:
	.cfi_offset %rbp, -16
	movq	%rsp, %rbp
Ltmp55:
	.cfi_def_cfa_register %rbp
	subq	$64, %rsp
	leaq	L_.str.1(%rip), %rax
	movq	%rdi, -16(%rbp)
	movq	%rsi, -24(%rbp)
	movq	%rdx, -32(%rbp)
Ltmp56:
	.loc	1 403 16 prologue_end   ## /Users/ericlei/Documents/ImageProcessing/sources/lodepng.c:403:16
	movq	-32(%rbp), %rdi
	.loc	1 403 10 is_stmt 0      ## /Users/ericlei/Documents/ImageProcessing/sources/lodepng.c:403:10
	movq	%rax, %rsi
	callq	_fopen
	.loc	1 403 8                 ## /Users/ericlei/Documents/ImageProcessing/sources/lodepng.c:403:8
	movq	%rax, -40(%rbp)
Ltmp57:
	.loc	1 404 7 is_stmt 1       ## /Users/ericlei/Documents/ImageProcessing/sources/lodepng.c:404:7
	cmpq	$0, -40(%rbp)
Ltmp58:
	.loc	1 404 6 is_stmt 0       ## /Users/ericlei/Documents/ImageProcessing/sources/lodepng.c:404:6
	jne	LBB5_2
## BB#1:
Ltmp59:
	.loc	1 404 13 discriminator 1 ## /Users/ericlei/Documents/ImageProcessing/sources/lodepng.c:404:13
	movl	$79, -4(%rbp)
	jmp	LBB5_3
Ltmp60:
LBB5_2:
	movl	$1, %eax
	movl	%eax, %esi
	.loc	1 405 17 is_stmt 1      ## /Users/ericlei/Documents/ImageProcessing/sources/lodepng.c:405:17
	movq	-16(%rbp), %rdi
	.loc	1 405 30 is_stmt 0      ## /Users/ericlei/Documents/ImageProcessing/sources/lodepng.c:405:30
	movq	-24(%rbp), %rdx
	.loc	1 405 42                ## /Users/ericlei/Documents/ImageProcessing/sources/lodepng.c:405:42
	movq	-40(%rbp), %rcx
	.loc	1 405 3                 ## /Users/ericlei/Documents/ImageProcessing/sources/lodepng.c:405:3
	callq	_fwrite
	.loc	1 406 10 is_stmt 1      ## /Users/ericlei/Documents/ImageProcessing/sources/lodepng.c:406:10
	movq	-40(%rbp), %rdi
	.loc	1 406 3 is_stmt 0       ## /Users/ericlei/Documents/ImageProcessing/sources/lodepng.c:406:3
	movq	%rax, -48(%rbp)         ## 8-byte Spill
	callq	_fclose
	.loc	1 407 3 is_stmt 1       ## /Users/ericlei/Documents/ImageProcessing/sources/lodepng.c:407:3
	movl	$0, -4(%rbp)
	movl	%eax, -52(%rbp)         ## 4-byte Spill
LBB5_3:
	.loc	1 408 1                 ## /Users/ericlei/Documents/ImageProcessing/sources/lodepng.c:408:1
	movl	-4(%rbp), %eax
	addq	$64, %rsp
	popq	%rbp
	retq
Ltmp61:
Lfunc_end5:
	.cfi_endproc

	.globl	_lodepng_huffman_code_lengths
	.p2align	4, 0x90
_lodepng_huffman_code_lengths:          ## @lodepng_huffman_code_lengths
Lfunc_begin6:
	.loc	1 791 0                 ## /Users/ericlei/Documents/ImageProcessing/sources/lodepng.c:791:0
	.cfi_startproc
## BB#0:
	pushq	%rbp
Ltmp62:
	.cfi_def_cfa_offset 16
Ltmp63:
	.cfi_offset %rbp, -16
	movq	%rsp, %rbp
Ltmp64:
	.cfi_def_cfa_register %rbp
	subq	$144, %rsp
	movq	%rdi, -16(%rbp)
	movq	%rsi, -24(%rbp)
	movq	%rdx, -32(%rbp)
	movl	%ecx, -36(%rbp)
Ltmp65:
	.loc	1 792 12 prologue_end   ## /Users/ericlei/Documents/ImageProcessing/sources/lodepng.c:792:12
	movl	$0, -40(%rbp)
	.loc	1 794 10                ## /Users/ericlei/Documents/ImageProcessing/sources/lodepng.c:794:10
	movq	$0, -56(%rbp)
Ltmp66:
	.loc	1 797 15                ## /Users/ericlei/Documents/ImageProcessing/sources/lodepng.c:797:15
	cmpq	$0, -32(%rbp)
Ltmp67:
	.loc	1 797 6 is_stmt 0       ## /Users/ericlei/Documents/ImageProcessing/sources/lodepng.c:797:6
	jne	LBB6_2
## BB#1:
Ltmp68:
	.loc	1 797 21 discriminator 1 ## /Users/ericlei/Documents/ImageProcessing/sources/lodepng.c:797:21
	movl	$80, -4(%rbp)
	jmp	LBB6_50
Ltmp69:
LBB6_2:
	movl	$1, %eax
Ltmp70:
	.loc	1 798 13 is_stmt 1      ## /Users/ericlei/Documents/ImageProcessing/sources/lodepng.c:798:13
	movl	-36(%rbp), %ecx
	.loc	1 798 10 is_stmt 0      ## /Users/ericlei/Documents/ImageProcessing/sources/lodepng.c:798:10
                                        ## kill: %CL<def> %ECX<kill>
	shll	%cl, %eax
	.loc	1 798 6                 ## /Users/ericlei/Documents/ImageProcessing/sources/lodepng.c:798:6
	movl	%eax, %eax
	movl	%eax, %edx
	.loc	1 798 24                ## /Users/ericlei/Documents/ImageProcessing/sources/lodepng.c:798:24
	cmpq	-32(%rbp), %rdx
Ltmp71:
	.loc	1 798 6                 ## /Users/ericlei/Documents/ImageProcessing/sources/lodepng.c:798:6
	jae	LBB6_4
## BB#3:
Ltmp72:
	.loc	1 798 36 discriminator 1 ## /Users/ericlei/Documents/ImageProcessing/sources/lodepng.c:798:36
	movl	$80, -4(%rbp)
	jmp	LBB6_50
Ltmp73:
LBB6_4:
	.loc	1 800 46 is_stmt 1      ## /Users/ericlei/Documents/ImageProcessing/sources/lodepng.c:800:46
	imulq	$24, -32(%rbp), %rdi
	.loc	1 800 22 is_stmt 0      ## /Users/ericlei/Documents/ImageProcessing/sources/lodepng.c:800:22
	callq	_lodepng_malloc
	.loc	1 800 10                ## /Users/ericlei/Documents/ImageProcessing/sources/lodepng.c:800:10
	movq	%rax, -64(%rbp)
Ltmp74:
	.loc	1 801 7 is_stmt 1       ## /Users/ericlei/Documents/ImageProcessing/sources/lodepng.c:801:7
	cmpq	$0, -64(%rbp)
Ltmp75:
	.loc	1 801 6 is_stmt 0       ## /Users/ericlei/Documents/ImageProcessing/sources/lodepng.c:801:6
	jne	LBB6_6
## BB#5:
Ltmp76:
	.loc	1 801 15 discriminator 1 ## /Users/ericlei/Documents/ImageProcessing/sources/lodepng.c:801:15
	movl	$83, -4(%rbp)
	jmp	LBB6_50
Ltmp77:
LBB6_6:
	.loc	1 803 9 is_stmt 1       ## /Users/ericlei/Documents/ImageProcessing/sources/lodepng.c:803:9
	movl	$0, -44(%rbp)
LBB6_7:                                 ## =>This Inner Loop Header: Depth=1
Ltmp78:
	.loc	1 803 14 is_stmt 0 discriminator 1 ## /Users/ericlei/Documents/ImageProcessing/sources/lodepng.c:803:14
	movl	-44(%rbp), %eax
	movl	%eax, %ecx
	.loc	1 803 16 discriminator 1 ## /Users/ericlei/Documents/ImageProcessing/sources/lodepng.c:803:16
	cmpq	-32(%rbp), %rcx
Ltmp79:
	.loc	1 803 3 discriminator 1 ## /Users/ericlei/Documents/ImageProcessing/sources/lodepng.c:803:3
	je	LBB6_12
## BB#8:                                ##   in Loop: Header=BB6_7 Depth=1
Ltmp80:
	.loc	1 805 8 is_stmt 1       ## /Users/ericlei/Documents/ImageProcessing/sources/lodepng.c:805:8
	movl	-44(%rbp), %eax
	movl	%eax, %ecx
	movq	-24(%rbp), %rdx
	.loc	1 805 23 is_stmt 0      ## /Users/ericlei/Documents/ImageProcessing/sources/lodepng.c:805:23
	cmpl	$0, (%rdx,%rcx,4)
Ltmp81:
	.loc	1 805 8                 ## /Users/ericlei/Documents/ImageProcessing/sources/lodepng.c:805:8
	jbe	LBB6_10
## BB#9:                                ##   in Loop: Header=BB6_7 Depth=1
Ltmp82:
	.loc	1 807 40 is_stmt 1      ## /Users/ericlei/Documents/ImageProcessing/sources/lodepng.c:807:40
	movl	-44(%rbp), %eax
	movl	%eax, %ecx
	movq	-24(%rbp), %rdx
	movl	(%rdx,%rcx,4), %eax
	.loc	1 807 14 is_stmt 0      ## /Users/ericlei/Documents/ImageProcessing/sources/lodepng.c:807:14
	movq	-56(%rbp), %rcx
	.loc	1 807 7                 ## /Users/ericlei/Documents/ImageProcessing/sources/lodepng.c:807:7
	imulq	$24, %rcx, %rcx
	addq	-64(%rbp), %rcx
	.loc	1 807 33                ## /Users/ericlei/Documents/ImageProcessing/sources/lodepng.c:807:33
	movl	%eax, (%rcx)
	.loc	1 808 34 is_stmt 1      ## /Users/ericlei/Documents/ImageProcessing/sources/lodepng.c:808:34
	movl	-44(%rbp), %eax
	.loc	1 808 14 is_stmt 0      ## /Users/ericlei/Documents/ImageProcessing/sources/lodepng.c:808:14
	movq	-56(%rbp), %rcx
	.loc	1 808 7                 ## /Users/ericlei/Documents/ImageProcessing/sources/lodepng.c:808:7
	imulq	$24, %rcx, %rcx
	addq	-64(%rbp), %rcx
	.loc	1 808 32                ## /Users/ericlei/Documents/ImageProcessing/sources/lodepng.c:808:32
	movl	%eax, 4(%rcx)
	.loc	1 809 7 is_stmt 1       ## /Users/ericlei/Documents/ImageProcessing/sources/lodepng.c:809:7
	movq	-56(%rbp), %rcx
	addq	$1, %rcx
	movq	%rcx, -56(%rbp)
Ltmp83:
LBB6_10:                                ##   in Loop: Header=BB6_7 Depth=1
	.loc	1 811 3                 ## /Users/ericlei/Documents/ImageProcessing/sources/lodepng.c:811:3
	jmp	LBB6_11
Ltmp84:
LBB6_11:                                ##   in Loop: Header=BB6_7 Depth=1
	.loc	1 803 29 discriminator 2 ## /Users/ericlei/Documents/ImageProcessing/sources/lodepng.c:803:29
	movl	-44(%rbp), %eax
	addl	$1, %eax
	movl	%eax, -44(%rbp)
	.loc	1 803 3 is_stmt 0 discriminator 2 ## /Users/ericlei/Documents/ImageProcessing/sources/lodepng.c:803:3
	jmp	LBB6_7
Ltmp85:
LBB6_12:
	.loc	1 813 9 is_stmt 1       ## /Users/ericlei/Documents/ImageProcessing/sources/lodepng.c:813:9
	movl	$0, -44(%rbp)
LBB6_13:                                ## =>This Inner Loop Header: Depth=1
Ltmp86:
	.loc	1 813 14 is_stmt 0 discriminator 1 ## /Users/ericlei/Documents/ImageProcessing/sources/lodepng.c:813:14
	movl	-44(%rbp), %eax
	movl	%eax, %ecx
	.loc	1 813 16 discriminator 1 ## /Users/ericlei/Documents/ImageProcessing/sources/lodepng.c:813:16
	cmpq	-32(%rbp), %rcx
Ltmp87:
	.loc	1 813 3 discriminator 1 ## /Users/ericlei/Documents/ImageProcessing/sources/lodepng.c:813:3
	je	LBB6_16
## BB#14:                               ##   in Loop: Header=BB6_13 Depth=1
Ltmp88:
	.loc	1 813 34 discriminator 2 ## /Users/ericlei/Documents/ImageProcessing/sources/lodepng.c:813:34
	movl	-44(%rbp), %eax
	movl	%eax, %ecx
	movq	-16(%rbp), %rdx
	.loc	1 813 45 discriminator 2 ## /Users/ericlei/Documents/ImageProcessing/sources/lodepng.c:813:45
	movl	$0, (%rdx,%rcx,4)
## BB#15:                               ##   in Loop: Header=BB6_13 Depth=1
	.loc	1 813 29 discriminator 3 ## /Users/ericlei/Documents/ImageProcessing/sources/lodepng.c:813:29
	movl	-44(%rbp), %eax
	addl	$1, %eax
	movl	%eax, -44(%rbp)
	.loc	1 813 3 discriminator 3 ## /Users/ericlei/Documents/ImageProcessing/sources/lodepng.c:813:3
	jmp	LBB6_13
Ltmp89:
LBB6_16:
	.loc	1 820 17 is_stmt 1      ## /Users/ericlei/Documents/ImageProcessing/sources/lodepng.c:820:17
	cmpq	$0, -56(%rbp)
Ltmp90:
	.loc	1 820 6 is_stmt 0       ## /Users/ericlei/Documents/ImageProcessing/sources/lodepng.c:820:6
	jne	LBB6_18
## BB#17:
Ltmp91:
	.loc	1 822 18 is_stmt 1      ## /Users/ericlei/Documents/ImageProcessing/sources/lodepng.c:822:18
	movq	-16(%rbp), %rax
	.loc	1 822 29 is_stmt 0      ## /Users/ericlei/Documents/ImageProcessing/sources/lodepng.c:822:29
	movl	$1, 4(%rax)
	.loc	1 822 5                 ## /Users/ericlei/Documents/ImageProcessing/sources/lodepng.c:822:5
	movq	-16(%rbp), %rax
	.loc	1 822 16                ## /Users/ericlei/Documents/ImageProcessing/sources/lodepng.c:822:16
	movl	$1, (%rax)
	.loc	1 823 3 is_stmt 1       ## /Users/ericlei/Documents/ImageProcessing/sources/lodepng.c:823:3
	jmp	LBB6_49
Ltmp92:
LBB6_18:
	.loc	1 824 22                ## /Users/ericlei/Documents/ImageProcessing/sources/lodepng.c:824:22
	cmpq	$1, -56(%rbp)
Ltmp93:
	.loc	1 824 11 is_stmt 0      ## /Users/ericlei/Documents/ImageProcessing/sources/lodepng.c:824:11
	jne	LBB6_20
## BB#19:
	xorl	%eax, %eax
	movl	$1, %ecx
Ltmp94:
	.loc	1 826 13 is_stmt 1      ## /Users/ericlei/Documents/ImageProcessing/sources/lodepng.c:826:13
	movq	-64(%rbp), %rdx
	.loc	1 826 5 is_stmt 0       ## /Users/ericlei/Documents/ImageProcessing/sources/lodepng.c:826:5
	movl	4(%rdx), %esi
	movl	%esi, %edx
	movq	-16(%rbp), %rdi
	.loc	1 826 30                ## /Users/ericlei/Documents/ImageProcessing/sources/lodepng.c:826:30
	movl	$1, (%rdi,%rdx,4)
	.loc	1 827 13 is_stmt 1      ## /Users/ericlei/Documents/ImageProcessing/sources/lodepng.c:827:13
	movq	-64(%rbp), %rdx
	.loc	1 827 29 is_stmt 0      ## /Users/ericlei/Documents/ImageProcessing/sources/lodepng.c:827:29
	cmpl	$0, 4(%rdx)
	.loc	1 827 13                ## /Users/ericlei/Documents/ImageProcessing/sources/lodepng.c:827:13
	cmovel	%ecx, %eax
	.loc	1 827 5                 ## /Users/ericlei/Documents/ImageProcessing/sources/lodepng.c:827:5
	movslq	%eax, %rdx
	movq	-16(%rbp), %rdi
	.loc	1 827 43                ## /Users/ericlei/Documents/ImageProcessing/sources/lodepng.c:827:43
	movl	$1, (%rdi,%rdx,4)
	.loc	1 828 3 is_stmt 1       ## /Users/ericlei/Documents/ImageProcessing/sources/lodepng.c:828:3
	jmp	LBB6_48
Ltmp95:
LBB6_20:
	.loc	1 834 18                ## /Users/ericlei/Documents/ImageProcessing/sources/lodepng.c:834:18
	movq	-64(%rbp), %rdi
	.loc	1 834 26 is_stmt 0      ## /Users/ericlei/Documents/ImageProcessing/sources/lodepng.c:834:26
	movq	-56(%rbp), %rsi
	.loc	1 834 5                 ## /Users/ericlei/Documents/ImageProcessing/sources/lodepng.c:834:5
	callq	_bpmnode_sort
	.loc	1 836 22 is_stmt 1      ## /Users/ericlei/Documents/ImageProcessing/sources/lodepng.c:836:22
	movl	-36(%rbp), %eax
	.loc	1 836 20 is_stmt 0      ## /Users/ericlei/Documents/ImageProcessing/sources/lodepng.c:836:20
	movl	%eax, -88(%rbp)
	.loc	1 837 25 is_stmt 1      ## /Users/ericlei/Documents/ImageProcessing/sources/lodepng.c:837:25
	movl	-36(%rbp), %eax
	.loc	1 837 23 is_stmt 0      ## /Users/ericlei/Documents/ImageProcessing/sources/lodepng.c:837:23
	shll	$1, %eax
	.loc	1 837 38                ## /Users/ericlei/Documents/ImageProcessing/sources/lodepng.c:837:38
	movl	-36(%rbp), %ecx
	.loc	1 837 48                ## /Users/ericlei/Documents/ImageProcessing/sources/lodepng.c:837:48
	addl	$1, %ecx
	.loc	1 837 35                ## /Users/ericlei/Documents/ImageProcessing/sources/lodepng.c:837:35
	imull	%ecx, %eax
	.loc	1 837 19                ## /Users/ericlei/Documents/ImageProcessing/sources/lodepng.c:837:19
	movl	%eax, -120(%rbp)
	.loc	1 838 20 is_stmt 1      ## /Users/ericlei/Documents/ImageProcessing/sources/lodepng.c:838:20
	movl	$0, -100(%rbp)
	.loc	1 839 27                ## /Users/ericlei/Documents/ImageProcessing/sources/lodepng.c:839:27
	movl	-120(%rbp), %eax
	.loc	1 839 19 is_stmt 0      ## /Users/ericlei/Documents/ImageProcessing/sources/lodepng.c:839:19
	movl	%eax, -104(%rbp)
	.loc	1 840 45 is_stmt 1      ## /Users/ericlei/Documents/ImageProcessing/sources/lodepng.c:840:45
	movl	-120(%rbp), %eax
	movl	%eax, %esi
	.loc	1 840 59 is_stmt 0      ## /Users/ericlei/Documents/ImageProcessing/sources/lodepng.c:840:59
	imulq	$24, %rsi, %rdi
	.loc	1 840 30                ## /Users/ericlei/Documents/ImageProcessing/sources/lodepng.c:840:30
	callq	_lodepng_malloc
	.loc	1 840 18                ## /Users/ericlei/Documents/ImageProcessing/sources/lodepng.c:840:18
	movq	%rax, -112(%rbp)
	.loc	1 841 48 is_stmt 1      ## /Users/ericlei/Documents/ImageProcessing/sources/lodepng.c:841:48
	movl	-120(%rbp), %ecx
	movl	%ecx, %eax
	.loc	1 841 62 is_stmt 0      ## /Users/ericlei/Documents/ImageProcessing/sources/lodepng.c:841:62
	shlq	$3, %rax
	.loc	1 841 33                ## /Users/ericlei/Documents/ImageProcessing/sources/lodepng.c:841:33
	movq	%rax, %rdi
	callq	_lodepng_malloc
	.loc	1 841 20                ## /Users/ericlei/Documents/ImageProcessing/sources/lodepng.c:841:20
	movq	%rax, -96(%rbp)
	.loc	1 842 47 is_stmt 1      ## /Users/ericlei/Documents/ImageProcessing/sources/lodepng.c:842:47
	movl	-88(%rbp), %ecx
	movl	%ecx, %eax
	.loc	1 842 62 is_stmt 0      ## /Users/ericlei/Documents/ImageProcessing/sources/lodepng.c:842:62
	shlq	$3, %rax
	.loc	1 842 32                ## /Users/ericlei/Documents/ImageProcessing/sources/lodepng.c:842:32
	movq	%rax, %rdi
	callq	_lodepng_malloc
	.loc	1 842 19                ## /Users/ericlei/Documents/ImageProcessing/sources/lodepng.c:842:19
	movq	%rax, -80(%rbp)
	.loc	1 843 47 is_stmt 1      ## /Users/ericlei/Documents/ImageProcessing/sources/lodepng.c:843:47
	movl	-88(%rbp), %ecx
	movl	%ecx, %eax
	.loc	1 843 62 is_stmt 0      ## /Users/ericlei/Documents/ImageProcessing/sources/lodepng.c:843:62
	shlq	$3, %rax
	.loc	1 843 32                ## /Users/ericlei/Documents/ImageProcessing/sources/lodepng.c:843:32
	movq	%rax, %rdi
	callq	_lodepng_malloc
	.loc	1 843 19                ## /Users/ericlei/Documents/ImageProcessing/sources/lodepng.c:843:19
	movq	%rax, -72(%rbp)
Ltmp96:
	.loc	1 844 9 is_stmt 1       ## /Users/ericlei/Documents/ImageProcessing/sources/lodepng.c:844:9
	cmpq	$0, -112(%rbp)
	.loc	1 844 22 is_stmt 0      ## /Users/ericlei/Documents/ImageProcessing/sources/lodepng.c:844:22
	je	LBB6_24
## BB#21:
	.loc	1 844 26 discriminator 1 ## /Users/ericlei/Documents/ImageProcessing/sources/lodepng.c:844:26
	cmpq	$0, -96(%rbp)
	.loc	1 844 41 discriminator 1 ## /Users/ericlei/Documents/ImageProcessing/sources/lodepng.c:844:41
	je	LBB6_24
## BB#22:
	.loc	1 844 45 discriminator 2 ## /Users/ericlei/Documents/ImageProcessing/sources/lodepng.c:844:45
	cmpq	$0, -80(%rbp)
	.loc	1 844 59 discriminator 2 ## /Users/ericlei/Documents/ImageProcessing/sources/lodepng.c:844:59
	je	LBB6_24
## BB#23:
	.loc	1 844 63 discriminator 3 ## /Users/ericlei/Documents/ImageProcessing/sources/lodepng.c:844:63
	cmpq	$0, -72(%rbp)
Ltmp97:
	.loc	1 844 8 discriminator 3 ## /Users/ericlei/Documents/ImageProcessing/sources/lodepng.c:844:8
	jne	LBB6_25
LBB6_24:
Ltmp98:
	.loc	1 844 84 discriminator 4 ## /Users/ericlei/Documents/ImageProcessing/sources/lodepng.c:844:84
	movl	$83, -40(%rbp)
Ltmp99:
LBB6_25:
	.loc	1 846 9 is_stmt 1       ## /Users/ericlei/Documents/ImageProcessing/sources/lodepng.c:846:9
	cmpl	$0, -40(%rbp)
Ltmp100:
	.loc	1 846 8 is_stmt 0       ## /Users/ericlei/Documents/ImageProcessing/sources/lodepng.c:846:8
	jne	LBB6_47
## BB#26:
Ltmp101:
	.loc	1 848 13 is_stmt 1      ## /Users/ericlei/Documents/ImageProcessing/sources/lodepng.c:848:13
	movl	$0, -44(%rbp)
LBB6_27:                                ## =>This Inner Loop Header: Depth=1
Ltmp102:
	.loc	1 848 18 is_stmt 0 discriminator 1 ## /Users/ericlei/Documents/ImageProcessing/sources/lodepng.c:848:18
	movl	-44(%rbp), %eax
	.loc	1 848 20 discriminator 1 ## /Users/ericlei/Documents/ImageProcessing/sources/lodepng.c:848:20
	cmpl	-120(%rbp), %eax
Ltmp103:
	.loc	1 848 7 discriminator 1 ## /Users/ericlei/Documents/ImageProcessing/sources/lodepng.c:848:7
	je	LBB6_30
## BB#28:                               ##   in Loop: Header=BB6_27 Depth=1
Ltmp104:
	.loc	1 848 64 discriminator 2 ## /Users/ericlei/Documents/ImageProcessing/sources/lodepng.c:848:64
	movl	-44(%rbp), %eax
	movl	%eax, %ecx
	imulq	$24, %rcx, %rcx
	addq	-112(%rbp), %rcx
	.loc	1 848 43 discriminator 2 ## /Users/ericlei/Documents/ImageProcessing/sources/lodepng.c:848:43
	movl	-44(%rbp), %eax
	movl	%eax, %edx
	.loc	1 848 49 discriminator 2 ## /Users/ericlei/Documents/ImageProcessing/sources/lodepng.c:848:49
	movq	-96(%rbp), %rsi
	.loc	1 848 61 discriminator 2 ## /Users/ericlei/Documents/ImageProcessing/sources/lodepng.c:848:61
	movq	%rcx, (%rsi,%rdx,8)
## BB#29:                               ##   in Loop: Header=BB6_27 Depth=1
	.loc	1 848 38 discriminator 3 ## /Users/ericlei/Documents/ImageProcessing/sources/lodepng.c:848:38
	movl	-44(%rbp), %eax
	addl	$1, %eax
	movl	%eax, -44(%rbp)
	.loc	1 848 7 discriminator 3 ## /Users/ericlei/Documents/ImageProcessing/sources/lodepng.c:848:7
	jmp	LBB6_27
Ltmp105:
LBB6_30:
	leaq	-120(%rbp), %rdi
	movl	$1, %edx
	xorl	%eax, %eax
	movl	%eax, %ecx
	.loc	1 850 30 is_stmt 1      ## /Users/ericlei/Documents/ImageProcessing/sources/lodepng.c:850:30
	movq	-64(%rbp), %rsi
	.loc	1 850 40 is_stmt 0      ## /Users/ericlei/Documents/ImageProcessing/sources/lodepng.c:850:40
	movl	(%rsi), %esi
	.loc	1 850 7                 ## /Users/ericlei/Documents/ImageProcessing/sources/lodepng.c:850:7
	callq	_bpmnode_create
	leaq	-120(%rbp), %rdi
	movl	$2, %edx
	xorl	%esi, %esi
	movl	%esi, %ecx
	.loc	1 851 30 is_stmt 1      ## /Users/ericlei/Documents/ImageProcessing/sources/lodepng.c:851:30
	movq	-64(%rbp), %r8
	.loc	1 851 40 is_stmt 0      ## /Users/ericlei/Documents/ImageProcessing/sources/lodepng.c:851:40
	movl	24(%r8), %esi
	.loc	1 851 7                 ## /Users/ericlei/Documents/ImageProcessing/sources/lodepng.c:851:7
	movq	%rax, -136(%rbp)        ## 8-byte Spill
	callq	_bpmnode_create
Ltmp106:
	.loc	1 853 13 is_stmt 1      ## /Users/ericlei/Documents/ImageProcessing/sources/lodepng.c:853:13
	movl	$0, -44(%rbp)
	movq	%rax, -144(%rbp)        ## 8-byte Spill
LBB6_31:                                ## =>This Inner Loop Header: Depth=1
Ltmp107:
	.loc	1 853 18 is_stmt 0 discriminator 1 ## /Users/ericlei/Documents/ImageProcessing/sources/lodepng.c:853:18
	movl	-44(%rbp), %eax
	.loc	1 853 20 discriminator 1 ## /Users/ericlei/Documents/ImageProcessing/sources/lodepng.c:853:20
	cmpl	-88(%rbp), %eax
Ltmp108:
	.loc	1 853 7 discriminator 1 ## /Users/ericlei/Documents/ImageProcessing/sources/lodepng.c:853:7
	je	LBB6_34
## BB#32:                               ##   in Loop: Header=BB6_31 Depth=1
Ltmp109:
	.loc	1 855 35 is_stmt 1      ## /Users/ericlei/Documents/ImageProcessing/sources/lodepng.c:855:35
	movq	-112(%rbp), %rax
	.loc	1 855 9 is_stmt 0       ## /Users/ericlei/Documents/ImageProcessing/sources/lodepng.c:855:9
	movl	-44(%rbp), %ecx
	movl	%ecx, %edx
	.loc	1 855 15                ## /Users/ericlei/Documents/ImageProcessing/sources/lodepng.c:855:15
	movq	-80(%rbp), %rsi
	.loc	1 855 26                ## /Users/ericlei/Documents/ImageProcessing/sources/lodepng.c:855:26
	movq	%rax, (%rsi,%rdx,8)
	.loc	1 856 35 is_stmt 1      ## /Users/ericlei/Documents/ImageProcessing/sources/lodepng.c:856:35
	movq	-112(%rbp), %rax
	.loc	1 856 29 is_stmt 0      ## /Users/ericlei/Documents/ImageProcessing/sources/lodepng.c:856:29
	addq	$24, %rax
	.loc	1 856 9                 ## /Users/ericlei/Documents/ImageProcessing/sources/lodepng.c:856:9
	movl	-44(%rbp), %ecx
	movl	%ecx, %edx
	.loc	1 856 15                ## /Users/ericlei/Documents/ImageProcessing/sources/lodepng.c:856:15
	movq	-72(%rbp), %rsi
	.loc	1 856 26                ## /Users/ericlei/Documents/ImageProcessing/sources/lodepng.c:856:26
	movq	%rax, (%rsi,%rdx,8)
Ltmp110:
## BB#33:                               ##   in Loop: Header=BB6_31 Depth=1
	.loc	1 853 39 is_stmt 1 discriminator 2 ## /Users/ericlei/Documents/ImageProcessing/sources/lodepng.c:853:39
	movl	-44(%rbp), %eax
	addl	$1, %eax
	movl	%eax, -44(%rbp)
	.loc	1 853 7 is_stmt 0 discriminator 2 ## /Users/ericlei/Documents/ImageProcessing/sources/lodepng.c:853:7
	jmp	LBB6_31
Ltmp111:
LBB6_34:
	.loc	1 860 13 is_stmt 1      ## /Users/ericlei/Documents/ImageProcessing/sources/lodepng.c:860:13
	movl	$2, -44(%rbp)
LBB6_35:                                ## =>This Inner Loop Header: Depth=1
Ltmp112:
	.loc	1 860 18 is_stmt 0 discriminator 1 ## /Users/ericlei/Documents/ImageProcessing/sources/lodepng.c:860:18
	movl	-44(%rbp), %eax
	movl	%eax, %ecx
	.loc	1 860 27 discriminator 1 ## /Users/ericlei/Documents/ImageProcessing/sources/lodepng.c:860:27
	movq	-56(%rbp), %rdx
	.loc	1 860 25 discriminator 1 ## /Users/ericlei/Documents/ImageProcessing/sources/lodepng.c:860:25
	shlq	$1, %rdx
	.loc	1 860 38 discriminator 1 ## /Users/ericlei/Documents/ImageProcessing/sources/lodepng.c:860:38
	subq	$2, %rdx
	.loc	1 860 20 discriminator 1 ## /Users/ericlei/Documents/ImageProcessing/sources/lodepng.c:860:20
	cmpq	%rdx, %rcx
Ltmp113:
	.loc	1 860 7 discriminator 1 ## /Users/ericlei/Documents/ImageProcessing/sources/lodepng.c:860:7
	je	LBB6_38
## BB#36:                               ##   in Loop: Header=BB6_35 Depth=1
	leaq	-120(%rbp), %rdi
Ltmp114:
	.loc	1 860 67 discriminator 2 ## /Users/ericlei/Documents/ImageProcessing/sources/lodepng.c:860:67
	movq	-64(%rbp), %rsi
	.loc	1 860 75 discriminator 2 ## /Users/ericlei/Documents/ImageProcessing/sources/lodepng.c:860:75
	movq	-56(%rbp), %rdx
	.loc	1 860 92 discriminator 2 ## /Users/ericlei/Documents/ImageProcessing/sources/lodepng.c:860:92
	movl	-36(%rbp), %eax
	.loc	1 860 102 discriminator 2 ## /Users/ericlei/Documents/ImageProcessing/sources/lodepng.c:860:102
	subl	$1, %eax
	.loc	1 860 112 discriminator 2 ## /Users/ericlei/Documents/ImageProcessing/sources/lodepng.c:860:112
	movl	-44(%rbp), %r8d
	.loc	1 860 48 discriminator 2 ## /Users/ericlei/Documents/ImageProcessing/sources/lodepng.c:860:48
	movl	%eax, %ecx
	callq	_boundaryPM
## BB#37:                               ##   in Loop: Header=BB6_35 Depth=1
	.loc	1 860 43 discriminator 3 ## /Users/ericlei/Documents/ImageProcessing/sources/lodepng.c:860:43
	movl	-44(%rbp), %eax
	addl	$1, %eax
	movl	%eax, -44(%rbp)
	.loc	1 860 7 discriminator 3 ## /Users/ericlei/Documents/ImageProcessing/sources/lodepng.c:860:7
	jmp	LBB6_35
Ltmp115:
LBB6_38:
	.loc	1 862 32 is_stmt 1      ## /Users/ericlei/Documents/ImageProcessing/sources/lodepng.c:862:32
	movl	-36(%rbp), %eax
	.loc	1 862 42 is_stmt 0      ## /Users/ericlei/Documents/ImageProcessing/sources/lodepng.c:862:42
	subl	$1, %eax
	.loc	1 862 18                ## /Users/ericlei/Documents/ImageProcessing/sources/lodepng.c:862:18
	movl	%eax, %eax
	movl	%eax, %ecx
	.loc	1 862 24                ## /Users/ericlei/Documents/ImageProcessing/sources/lodepng.c:862:24
	movq	-72(%rbp), %rdx
	.loc	1 862 18                ## /Users/ericlei/Documents/ImageProcessing/sources/lodepng.c:862:18
	movq	(%rdx,%rcx,8), %rcx
	.loc	1 862 16                ## /Users/ericlei/Documents/ImageProcessing/sources/lodepng.c:862:16
	movq	%rcx, -128(%rbp)
LBB6_39:                                ## =>This Loop Header: Depth=1
                                        ##     Child Loop BB6_41 Depth 2
	.loc	1 862 7 discriminator 1 ## /Users/ericlei/Documents/ImageProcessing/sources/lodepng.c:862:7
	cmpq	$0, -128(%rbp)
	je	LBB6_46
## BB#40:                               ##   in Loop: Header=BB6_39 Depth=1
Ltmp116:
	.loc	1 864 15 is_stmt 1      ## /Users/ericlei/Documents/ImageProcessing/sources/lodepng.c:864:15
	movl	$0, -44(%rbp)
LBB6_41:                                ##   Parent Loop BB6_39 Depth=1
                                        ## =>  This Inner Loop Header: Depth=2
Ltmp117:
	.loc	1 864 20 is_stmt 0 discriminator 1 ## /Users/ericlei/Documents/ImageProcessing/sources/lodepng.c:864:20
	movl	-44(%rbp), %eax
	.loc	1 864 25 discriminator 1 ## /Users/ericlei/Documents/ImageProcessing/sources/lodepng.c:864:25
	movq	-128(%rbp), %rcx
	.loc	1 864 22 discriminator 1 ## /Users/ericlei/Documents/ImageProcessing/sources/lodepng.c:864:22
	cmpl	4(%rcx), %eax
Ltmp118:
	.loc	1 864 9 discriminator 1 ## /Users/ericlei/Documents/ImageProcessing/sources/lodepng.c:864:9
	je	LBB6_44
## BB#42:                               ##   in Loop: Header=BB6_41 Depth=2
Ltmp119:
	.loc	1 864 53 discriminator 2 ## /Users/ericlei/Documents/ImageProcessing/sources/lodepng.c:864:53
	movl	-44(%rbp), %eax
	movl	%eax, %ecx
	imulq	$24, %rcx, %rcx
	addq	-64(%rbp), %rcx
	.loc	1 864 45 discriminator 2 ## /Users/ericlei/Documents/ImageProcessing/sources/lodepng.c:864:45
	movl	4(%rcx), %eax
	movl	%eax, %ecx
	movq	-16(%rbp), %rdx
	.loc	1 864 43 discriminator 2 ## /Users/ericlei/Documents/ImageProcessing/sources/lodepng.c:864:43
	movl	(%rdx,%rcx,4), %eax
	addl	$1, %eax
	movl	%eax, (%rdx,%rcx,4)
## BB#43:                               ##   in Loop: Header=BB6_41 Depth=2
	.loc	1 864 38 discriminator 3 ## /Users/ericlei/Documents/ImageProcessing/sources/lodepng.c:864:38
	movl	-44(%rbp), %eax
	addl	$1, %eax
	movl	%eax, -44(%rbp)
	.loc	1 864 9 discriminator 3 ## /Users/ericlei/Documents/ImageProcessing/sources/lodepng.c:864:9
	jmp	LBB6_41
Ltmp120:
LBB6_44:                                ##   in Loop: Header=BB6_39 Depth=1
	.loc	1 865 7 is_stmt 1       ## /Users/ericlei/Documents/ImageProcessing/sources/lodepng.c:865:7
	jmp	LBB6_45
Ltmp121:
LBB6_45:                                ##   in Loop: Header=BB6_39 Depth=1
	.loc	1 862 61 discriminator 2 ## /Users/ericlei/Documents/ImageProcessing/sources/lodepng.c:862:61
	movq	-128(%rbp), %rax
	.loc	1 862 67 is_stmt 0 discriminator 2 ## /Users/ericlei/Documents/ImageProcessing/sources/lodepng.c:862:67
	movq	8(%rax), %rax
	.loc	1 862 59 discriminator 2 ## /Users/ericlei/Documents/ImageProcessing/sources/lodepng.c:862:59
	movq	%rax, -128(%rbp)
	.loc	1 862 7 discriminator 2 ## /Users/ericlei/Documents/ImageProcessing/sources/lodepng.c:862:7
	jmp	LBB6_39
Ltmp122:
LBB6_46:
	.loc	1 866 5 is_stmt 1       ## /Users/ericlei/Documents/ImageProcessing/sources/lodepng.c:866:5
	jmp	LBB6_47
Ltmp123:
LBB6_47:
	.loc	1 868 24                ## /Users/ericlei/Documents/ImageProcessing/sources/lodepng.c:868:24
	movq	-112(%rbp), %rax
	.loc	1 868 5 is_stmt 0       ## /Users/ericlei/Documents/ImageProcessing/sources/lodepng.c:868:5
	movq	%rax, %rdi
	callq	_lodepng_free
	.loc	1 869 24 is_stmt 1      ## /Users/ericlei/Documents/ImageProcessing/sources/lodepng.c:869:24
	movq	-96(%rbp), %rax
	.loc	1 869 5 is_stmt 0       ## /Users/ericlei/Documents/ImageProcessing/sources/lodepng.c:869:5
	movq	%rax, %rdi
	callq	_lodepng_free
	.loc	1 870 24 is_stmt 1      ## /Users/ericlei/Documents/ImageProcessing/sources/lodepng.c:870:24
	movq	-80(%rbp), %rax
	.loc	1 870 5 is_stmt 0       ## /Users/ericlei/Documents/ImageProcessing/sources/lodepng.c:870:5
	movq	%rax, %rdi
	callq	_lodepng_free
	.loc	1 871 24 is_stmt 1      ## /Users/ericlei/Documents/ImageProcessing/sources/lodepng.c:871:24
	movq	-72(%rbp), %rax
	.loc	1 871 5 is_stmt 0       ## /Users/ericlei/Documents/ImageProcessing/sources/lodepng.c:871:5
	movq	%rax, %rdi
	callq	_lodepng_free
Ltmp124:
LBB6_48:
	jmp	LBB6_49
LBB6_49:
	.loc	1 874 16 is_stmt 1      ## /Users/ericlei/Documents/ImageProcessing/sources/lodepng.c:874:16
	movq	-64(%rbp), %rax
	.loc	1 874 3 is_stmt 0       ## /Users/ericlei/Documents/ImageProcessing/sources/lodepng.c:874:3
	movq	%rax, %rdi
	callq	_lodepng_free
	.loc	1 875 10 is_stmt 1      ## /Users/ericlei/Documents/ImageProcessing/sources/lodepng.c:875:10
	movl	-40(%rbp), %ecx
	.loc	1 875 3 is_stmt 0       ## /Users/ericlei/Documents/ImageProcessing/sources/lodepng.c:875:3
	movl	%ecx, -4(%rbp)
LBB6_50:
	.loc	1 876 1 is_stmt 1       ## /Users/ericlei/Documents/ImageProcessing/sources/lodepng.c:876:1
	movl	-4(%rbp), %eax
	addq	$144, %rsp
	popq	%rbp
	retq
Ltmp125:
Lfunc_end6:
	.cfi_endproc

	.p2align	4, 0x90
_bpmnode_sort:                          ## @bpmnode_sort
Lfunc_begin7:
	.loc	1 732 0                 ## /Users/ericlei/Documents/ImageProcessing/sources/lodepng.c:732:0
	.cfi_startproc
## BB#0:
	pushq	%rbp
Ltmp126:
	.cfi_def_cfa_offset 16
Ltmp127:
	.cfi_offset %rbp, -16
	movq	%rsp, %rbp
Ltmp128:
	.cfi_def_cfa_register %rbp
	subq	$160, %rsp
	movq	%rdi, -8(%rbp)
	movq	%rsi, -16(%rbp)
Ltmp129:
	.loc	1 733 59 prologue_end   ## /Users/ericlei/Documents/ImageProcessing/sources/lodepng.c:733:59
	imulq	$24, -16(%rbp), %rdi
	.loc	1 733 28 is_stmt 0      ## /Users/ericlei/Documents/ImageProcessing/sources/lodepng.c:733:28
	callq	_lodepng_malloc
	.loc	1 733 12                ## /Users/ericlei/Documents/ImageProcessing/sources/lodepng.c:733:12
	movq	%rax, -24(%rbp)
	.loc	1 734 17 is_stmt 1      ## /Users/ericlei/Documents/ImageProcessing/sources/lodepng.c:734:17
	movq	$0, -40(%rbp)
Ltmp130:
	.loc	1 735 13                ## /Users/ericlei/Documents/ImageProcessing/sources/lodepng.c:735:13
	movq	$1, -32(%rbp)
LBB7_1:                                 ## =>This Loop Header: Depth=1
                                        ##     Child Loop BB7_9 Depth 2
                                        ##       Child Loop BB7_17 Depth 3
Ltmp131:
	.loc	1 735 18 is_stmt 0 discriminator 1 ## /Users/ericlei/Documents/ImageProcessing/sources/lodepng.c:735:18
	movq	-32(%rbp), %rax
	.loc	1 735 24 discriminator 1 ## /Users/ericlei/Documents/ImageProcessing/sources/lodepng.c:735:24
	cmpq	-16(%rbp), %rax
Ltmp132:
	.loc	1 735 3 discriminator 1 ## /Users/ericlei/Documents/ImageProcessing/sources/lodepng.c:735:3
	jae	LBB7_29
## BB#2:                                ##   in Loop: Header=BB7_1 Depth=1
Ltmp133:
	.loc	1 737 19 is_stmt 1      ## /Users/ericlei/Documents/ImageProcessing/sources/lodepng.c:737:19
	movq	-40(%rbp), %rax
	.loc	1 737 27 is_stmt 0      ## /Users/ericlei/Documents/ImageProcessing/sources/lodepng.c:737:27
	andq	$1, %rax
	cmpq	$0, %rax
	.loc	1 737 18                ## /Users/ericlei/Documents/ImageProcessing/sources/lodepng.c:737:18
	je	LBB7_4
## BB#3:                                ##   in Loop: Header=BB7_1 Depth=1
	.loc	1 737 34 discriminator 1 ## /Users/ericlei/Documents/ImageProcessing/sources/lodepng.c:737:34
	movq	-24(%rbp), %rax
	.loc	1 737 18 discriminator 1 ## /Users/ericlei/Documents/ImageProcessing/sources/lodepng.c:737:18
	movq	%rax, -112(%rbp)        ## 8-byte Spill
	jmp	LBB7_5
LBB7_4:                                 ##   in Loop: Header=BB7_1 Depth=1
	.loc	1 737 40 discriminator 2 ## /Users/ericlei/Documents/ImageProcessing/sources/lodepng.c:737:40
	movq	-8(%rbp), %rax
	movq	%rax, -112(%rbp)        ## 8-byte Spill
LBB7_5:                                 ##   in Loop: Header=BB7_1 Depth=1
	.loc	1 737 18 discriminator 3 ## /Users/ericlei/Documents/ImageProcessing/sources/lodepng.c:737:18
	movq	-112(%rbp), %rax        ## 8-byte Reload
	.loc	1 737 14 discriminator 3 ## /Users/ericlei/Documents/ImageProcessing/sources/lodepng.c:737:14
	movq	%rax, -48(%rbp)
	.loc	1 738 19 is_stmt 1      ## /Users/ericlei/Documents/ImageProcessing/sources/lodepng.c:738:19
	movq	-40(%rbp), %rax
	.loc	1 738 27 is_stmt 0      ## /Users/ericlei/Documents/ImageProcessing/sources/lodepng.c:738:27
	andq	$1, %rax
	cmpq	$0, %rax
	.loc	1 738 18                ## /Users/ericlei/Documents/ImageProcessing/sources/lodepng.c:738:18
	je	LBB7_7
## BB#6:                                ##   in Loop: Header=BB7_1 Depth=1
	.loc	1 738 34 discriminator 1 ## /Users/ericlei/Documents/ImageProcessing/sources/lodepng.c:738:34
	movq	-8(%rbp), %rax
	.loc	1 738 18 discriminator 1 ## /Users/ericlei/Documents/ImageProcessing/sources/lodepng.c:738:18
	movq	%rax, -120(%rbp)        ## 8-byte Spill
	jmp	LBB7_8
LBB7_7:                                 ##   in Loop: Header=BB7_1 Depth=1
	.loc	1 738 43 discriminator 2 ## /Users/ericlei/Documents/ImageProcessing/sources/lodepng.c:738:43
	movq	-24(%rbp), %rax
	movq	%rax, -120(%rbp)        ## 8-byte Spill
LBB7_8:                                 ##   in Loop: Header=BB7_1 Depth=1
	.loc	1 738 18 discriminator 3 ## /Users/ericlei/Documents/ImageProcessing/sources/lodepng.c:738:18
	movq	-120(%rbp), %rax        ## 8-byte Reload
	.loc	1 738 14 discriminator 3 ## /Users/ericlei/Documents/ImageProcessing/sources/lodepng.c:738:14
	movq	%rax, -56(%rbp)
Ltmp134:
	.loc	1 740 11 is_stmt 1      ## /Users/ericlei/Documents/ImageProcessing/sources/lodepng.c:740:11
	movq	$0, -64(%rbp)
LBB7_9:                                 ##   Parent Loop BB7_1 Depth=1
                                        ## =>  This Loop Header: Depth=2
                                        ##       Child Loop BB7_17 Depth 3
Ltmp135:
	.loc	1 740 16 is_stmt 0 discriminator 1 ## /Users/ericlei/Documents/ImageProcessing/sources/lodepng.c:740:16
	movq	-64(%rbp), %rax
	.loc	1 740 18 discriminator 1 ## /Users/ericlei/Documents/ImageProcessing/sources/lodepng.c:740:18
	cmpq	-16(%rbp), %rax
Ltmp136:
	.loc	1 740 5 discriminator 1 ## /Users/ericlei/Documents/ImageProcessing/sources/lodepng.c:740:5
	jae	LBB7_27
## BB#10:                               ##   in Loop: Header=BB7_9 Depth=2
Ltmp137:
	.loc	1 742 19 is_stmt 1      ## /Users/ericlei/Documents/ImageProcessing/sources/lodepng.c:742:19
	movq	-64(%rbp), %rax
	.loc	1 742 21 is_stmt 0      ## /Users/ericlei/Documents/ImageProcessing/sources/lodepng.c:742:21
	addq	-32(%rbp), %rax
	.loc	1 742 29                ## /Users/ericlei/Documents/ImageProcessing/sources/lodepng.c:742:29
	cmpq	-16(%rbp), %rax
	.loc	1 742 18                ## /Users/ericlei/Documents/ImageProcessing/sources/lodepng.c:742:18
	jbe	LBB7_12
## BB#11:                               ##   in Loop: Header=BB7_9 Depth=2
	.loc	1 742 38 discriminator 1 ## /Users/ericlei/Documents/ImageProcessing/sources/lodepng.c:742:38
	movq	-16(%rbp), %rax
	.loc	1 742 18 discriminator 1 ## /Users/ericlei/Documents/ImageProcessing/sources/lodepng.c:742:18
	movq	%rax, -128(%rbp)        ## 8-byte Spill
	jmp	LBB7_13
LBB7_12:                                ##   in Loop: Header=BB7_9 Depth=2
	.loc	1 742 45 discriminator 2 ## /Users/ericlei/Documents/ImageProcessing/sources/lodepng.c:742:45
	movq	-64(%rbp), %rax
	.loc	1 742 47 discriminator 2 ## /Users/ericlei/Documents/ImageProcessing/sources/lodepng.c:742:47
	addq	-32(%rbp), %rax
	movq	%rax, -128(%rbp)        ## 8-byte Spill
LBB7_13:                                ##   in Loop: Header=BB7_9 Depth=2
	.loc	1 742 18 discriminator 3 ## /Users/ericlei/Documents/ImageProcessing/sources/lodepng.c:742:18
	movq	-128(%rbp), %rax        ## 8-byte Reload
	.loc	1 742 14 discriminator 3 ## /Users/ericlei/Documents/ImageProcessing/sources/lodepng.c:742:14
	movq	%rax, -72(%rbp)
	.loc	1 743 19 is_stmt 1      ## /Users/ericlei/Documents/ImageProcessing/sources/lodepng.c:743:19
	movq	-64(%rbp), %rax
	.loc	1 743 27 is_stmt 0      ## /Users/ericlei/Documents/ImageProcessing/sources/lodepng.c:743:27
	movq	-32(%rbp), %rcx
	.loc	1 743 25                ## /Users/ericlei/Documents/ImageProcessing/sources/lodepng.c:743:25
	shlq	$1, %rcx
	.loc	1 743 21                ## /Users/ericlei/Documents/ImageProcessing/sources/lodepng.c:743:21
	addq	%rcx, %rax
	.loc	1 743 33                ## /Users/ericlei/Documents/ImageProcessing/sources/lodepng.c:743:33
	cmpq	-16(%rbp), %rax
	.loc	1 743 18                ## /Users/ericlei/Documents/ImageProcessing/sources/lodepng.c:743:18
	jbe	LBB7_15
## BB#14:                               ##   in Loop: Header=BB7_9 Depth=2
	.loc	1 743 42 discriminator 1 ## /Users/ericlei/Documents/ImageProcessing/sources/lodepng.c:743:42
	movq	-16(%rbp), %rax
	.loc	1 743 18 discriminator 1 ## /Users/ericlei/Documents/ImageProcessing/sources/lodepng.c:743:18
	movq	%rax, -136(%rbp)        ## 8-byte Spill
	jmp	LBB7_16
LBB7_15:                                ##   in Loop: Header=BB7_9 Depth=2
	.loc	1 743 49 discriminator 2 ## /Users/ericlei/Documents/ImageProcessing/sources/lodepng.c:743:49
	movq	-64(%rbp), %rax
	.loc	1 743 57 discriminator 2 ## /Users/ericlei/Documents/ImageProcessing/sources/lodepng.c:743:57
	movq	-32(%rbp), %rcx
	.loc	1 743 55 discriminator 2 ## /Users/ericlei/Documents/ImageProcessing/sources/lodepng.c:743:55
	shlq	$1, %rcx
	.loc	1 743 51 discriminator 2 ## /Users/ericlei/Documents/ImageProcessing/sources/lodepng.c:743:51
	addq	%rcx, %rax
	movq	%rax, -136(%rbp)        ## 8-byte Spill
LBB7_16:                                ##   in Loop: Header=BB7_9 Depth=2
	.loc	1 743 18 discriminator 3 ## /Users/ericlei/Documents/ImageProcessing/sources/lodepng.c:743:18
	movq	-136(%rbp), %rax        ## 8-byte Reload
	.loc	1 743 14 discriminator 3 ## /Users/ericlei/Documents/ImageProcessing/sources/lodepng.c:743:14
	movq	%rax, -80(%rbp)
	.loc	1 744 18 is_stmt 1      ## /Users/ericlei/Documents/ImageProcessing/sources/lodepng.c:744:18
	movq	-64(%rbp), %rax
	.loc	1 744 14 is_stmt 0      ## /Users/ericlei/Documents/ImageProcessing/sources/lodepng.c:744:14
	movq	%rax, -88(%rbp)
	.loc	1 744 25                ## /Users/ericlei/Documents/ImageProcessing/sources/lodepng.c:744:25
	movq	-72(%rbp), %rax
	.loc	1 744 21                ## /Users/ericlei/Documents/ImageProcessing/sources/lodepng.c:744:21
	movq	%rax, -96(%rbp)
Ltmp138:
	.loc	1 745 15 is_stmt 1      ## /Users/ericlei/Documents/ImageProcessing/sources/lodepng.c:745:15
	movq	-64(%rbp), %rax
	.loc	1 745 13 is_stmt 0      ## /Users/ericlei/Documents/ImageProcessing/sources/lodepng.c:745:13
	movq	%rax, -104(%rbp)
LBB7_17:                                ##   Parent Loop BB7_1 Depth=1
                                        ##     Parent Loop BB7_9 Depth=2
                                        ## =>    This Inner Loop Header: Depth=3
Ltmp139:
	.loc	1 745 18 discriminator 1 ## /Users/ericlei/Documents/ImageProcessing/sources/lodepng.c:745:18
	movq	-104(%rbp), %rax
	.loc	1 745 20 discriminator 1 ## /Users/ericlei/Documents/ImageProcessing/sources/lodepng.c:745:20
	cmpq	-80(%rbp), %rax
Ltmp140:
	.loc	1 745 7 discriminator 1 ## /Users/ericlei/Documents/ImageProcessing/sources/lodepng.c:745:7
	jae	LBB7_25
## BB#18:                               ##   in Loop: Header=BB7_17 Depth=3
Ltmp141:
	.loc	1 747 12 is_stmt 1      ## /Users/ericlei/Documents/ImageProcessing/sources/lodepng.c:747:12
	movq	-88(%rbp), %rax
	.loc	1 747 14 is_stmt 0      ## /Users/ericlei/Documents/ImageProcessing/sources/lodepng.c:747:14
	cmpq	-72(%rbp), %rax
	.loc	1 747 18                ## /Users/ericlei/Documents/ImageProcessing/sources/lodepng.c:747:18
	jae	LBB7_22
## BB#19:                               ##   in Loop: Header=BB7_17 Depth=3
	.loc	1 747 22 discriminator 1 ## /Users/ericlei/Documents/ImageProcessing/sources/lodepng.c:747:22
	movq	-96(%rbp), %rax
	.loc	1 747 24 discriminator 1 ## /Users/ericlei/Documents/ImageProcessing/sources/lodepng.c:747:24
	cmpq	-80(%rbp), %rax
	.loc	1 747 29 discriminator 1 ## /Users/ericlei/Documents/ImageProcessing/sources/lodepng.c:747:29
	jae	LBB7_21
## BB#20:                               ##   in Loop: Header=BB7_17 Depth=3
	.loc	1 747 34 discriminator 2 ## /Users/ericlei/Documents/ImageProcessing/sources/lodepng.c:747:34
	movq	-88(%rbp), %rax
	.loc	1 747 32 discriminator 2 ## /Users/ericlei/Documents/ImageProcessing/sources/lodepng.c:747:32
	imulq	$24, %rax, %rax
	addq	-48(%rbp), %rax
	.loc	1 747 37 discriminator 2 ## /Users/ericlei/Documents/ImageProcessing/sources/lodepng.c:747:37
	movl	(%rax), %ecx
	.loc	1 747 49 discriminator 2 ## /Users/ericlei/Documents/ImageProcessing/sources/lodepng.c:747:49
	movq	-96(%rbp), %rax
	.loc	1 747 47 discriminator 2 ## /Users/ericlei/Documents/ImageProcessing/sources/lodepng.c:747:47
	imulq	$24, %rax, %rax
	addq	-48(%rbp), %rax
	.loc	1 747 44 discriminator 2 ## /Users/ericlei/Documents/ImageProcessing/sources/lodepng.c:747:44
	cmpl	(%rax), %ecx
Ltmp142:
	.loc	1 747 12 discriminator 2 ## /Users/ericlei/Documents/ImageProcessing/sources/lodepng.c:747:12
	jg	LBB7_22
LBB7_21:                                ##   in Loop: Header=BB7_17 Depth=3
Ltmp143:
	.loc	1 747 63 discriminator 3 ## /Users/ericlei/Documents/ImageProcessing/sources/lodepng.c:747:63
	movq	-104(%rbp), %rax
	.loc	1 747 61 discriminator 3 ## /Users/ericlei/Documents/ImageProcessing/sources/lodepng.c:747:61
	imulq	$24, %rax, %rax
	addq	-56(%rbp), %rax
	.loc	1 747 71 discriminator 3 ## /Users/ericlei/Documents/ImageProcessing/sources/lodepng.c:747:71
	movq	-88(%rbp), %rcx
	movq	%rcx, %rdx
	addq	$1, %rdx
	movq	%rdx, -88(%rbp)
	.loc	1 747 68 discriminator 3 ## /Users/ericlei/Documents/ImageProcessing/sources/lodepng.c:747:68
	imulq	$24, %rcx, %rcx
	addq	-48(%rbp), %rcx
	.loc	1 747 68                ## /Users/ericlei/Documents/ImageProcessing/sources/lodepng.c:747:68
	movq	(%rcx), %rdx
	movq	%rdx, (%rax)
	movq	8(%rcx), %rdx
	movq	%rdx, 8(%rax)
	movq	16(%rcx), %rcx
	movq	%rcx, 16(%rax)
	.loc	1 747 61 discriminator 3 ## /Users/ericlei/Documents/ImageProcessing/sources/lodepng.c:747:61
	jmp	LBB7_23
LBB7_22:                                ##   in Loop: Header=BB7_17 Depth=3
	.loc	1 748 16 is_stmt 1      ## /Users/ericlei/Documents/ImageProcessing/sources/lodepng.c:748:16
	movq	-104(%rbp), %rax
	.loc	1 748 14 is_stmt 0      ## /Users/ericlei/Documents/ImageProcessing/sources/lodepng.c:748:14
	imulq	$24, %rax, %rax
	addq	-56(%rbp), %rax
	.loc	1 748 24                ## /Users/ericlei/Documents/ImageProcessing/sources/lodepng.c:748:24
	movq	-96(%rbp), %rcx
	movq	%rcx, %rdx
	addq	$1, %rdx
	movq	%rdx, -96(%rbp)
	.loc	1 748 21                ## /Users/ericlei/Documents/ImageProcessing/sources/lodepng.c:748:21
	imulq	$24, %rcx, %rcx
	addq	-48(%rbp), %rcx
	movq	(%rcx), %rdx
	movq	%rdx, (%rax)
	movq	8(%rcx), %rdx
	movq	%rdx, 8(%rax)
	movq	16(%rcx), %rcx
	movq	%rcx, 16(%rax)
Ltmp144:
LBB7_23:                                ##   in Loop: Header=BB7_17 Depth=3
	.loc	1 749 7 is_stmt 1       ## /Users/ericlei/Documents/ImageProcessing/sources/lodepng.c:749:7
	jmp	LBB7_24
Ltmp145:
LBB7_24:                                ##   in Loop: Header=BB7_17 Depth=3
	.loc	1 745 26 discriminator 2 ## /Users/ericlei/Documents/ImageProcessing/sources/lodepng.c:745:26
	movq	-104(%rbp), %rax
	addq	$1, %rax
	movq	%rax, -104(%rbp)
	.loc	1 745 7 is_stmt 0 discriminator 2 ## /Users/ericlei/Documents/ImageProcessing/sources/lodepng.c:745:7
	jmp	LBB7_17
Ltmp146:
LBB7_25:                                ##   in Loop: Header=BB7_9 Depth=2
	.loc	1 750 5 is_stmt 1       ## /Users/ericlei/Documents/ImageProcessing/sources/lodepng.c:750:5
	jmp	LBB7_26
Ltmp147:
LBB7_26:                                ##   in Loop: Header=BB7_9 Depth=2
	.loc	1 740 34 discriminator 2 ## /Users/ericlei/Documents/ImageProcessing/sources/lodepng.c:740:34
	movq	-32(%rbp), %rax
	.loc	1 740 32 is_stmt 0 discriminator 2 ## /Users/ericlei/Documents/ImageProcessing/sources/lodepng.c:740:32
	shlq	$1, %rax
	.loc	1 740 27 discriminator 2 ## /Users/ericlei/Documents/ImageProcessing/sources/lodepng.c:740:27
	addq	-64(%rbp), %rax
	movq	%rax, -64(%rbp)
	.loc	1 740 5 discriminator 2 ## /Users/ericlei/Documents/ImageProcessing/sources/lodepng.c:740:5
	jmp	LBB7_9
Ltmp148:
LBB7_27:                                ##   in Loop: Header=BB7_1 Depth=1
	.loc	1 751 12 is_stmt 1      ## /Users/ericlei/Documents/ImageProcessing/sources/lodepng.c:751:12
	movq	-40(%rbp), %rax
	addq	$1, %rax
	movq	%rax, -40(%rbp)
Ltmp149:
## BB#28:                               ##   in Loop: Header=BB7_1 Depth=1
	.loc	1 735 37 discriminator 2 ## /Users/ericlei/Documents/ImageProcessing/sources/lodepng.c:735:37
	movq	-32(%rbp), %rax
	shlq	$1, %rax
	movq	%rax, -32(%rbp)
	.loc	1 735 3 is_stmt 0 discriminator 2 ## /Users/ericlei/Documents/ImageProcessing/sources/lodepng.c:735:3
	jmp	LBB7_1
Ltmp150:
LBB7_29:
	.loc	1 753 6 is_stmt 1       ## /Users/ericlei/Documents/ImageProcessing/sources/lodepng.c:753:6
	movq	-40(%rbp), %rax
	.loc	1 753 14 is_stmt 0      ## /Users/ericlei/Documents/ImageProcessing/sources/lodepng.c:753:14
	andq	$1, %rax
	cmpq	$0, %rax
Ltmp151:
	.loc	1 753 6                 ## /Users/ericlei/Documents/ImageProcessing/sources/lodepng.c:753:6
	je	LBB7_31
## BB#30:
	movq	$-1, %rcx
Ltmp152:
	.loc	1 753 19 discriminator 1 ## /Users/ericlei/Documents/ImageProcessing/sources/lodepng.c:753:19
	movq	-8(%rbp), %rax
	movq	-24(%rbp), %rdx
	imulq	$24, -16(%rbp), %rsi
	movq	%rax, %rdi
	movq	%rsi, -144(%rbp)        ## 8-byte Spill
	movq	%rdx, %rsi
	movq	-144(%rbp), %rdx        ## 8-byte Reload
	callq	___memcpy_chk
	movq	%rax, -152(%rbp)        ## 8-byte Spill
Ltmp153:
LBB7_31:
	.loc	1 754 16 is_stmt 1      ## /Users/ericlei/Documents/ImageProcessing/sources/lodepng.c:754:16
	movq	-24(%rbp), %rax
	.loc	1 754 3 is_stmt 0       ## /Users/ericlei/Documents/ImageProcessing/sources/lodepng.c:754:3
	movq	%rax, %rdi
	callq	_lodepng_free
	.loc	1 755 1 is_stmt 1       ## /Users/ericlei/Documents/ImageProcessing/sources/lodepng.c:755:1
	addq	$160, %rsp
	popq	%rbp
	retq
Ltmp154:
Lfunc_end7:
	.cfi_endproc

	.p2align	4, 0x90
_bpmnode_create:                        ## @bpmnode_create
Lfunc_begin8:
	.loc	1 699 0                 ## /Users/ericlei/Documents/ImageProcessing/sources/lodepng.c:699:0
	.cfi_startproc
## BB#0:
	pushq	%rbp
Ltmp155:
	.cfi_def_cfa_offset 16
Ltmp156:
	.cfi_offset %rbp, -16
	movq	%rsp, %rbp
Ltmp157:
	.cfi_def_cfa_register %rbp
	movq	%rdi, -8(%rbp)
	movl	%esi, -12(%rbp)
	movl	%edx, -16(%rbp)
	movq	%rcx, -24(%rbp)
Ltmp158:
	.loc	1 704 6 prologue_end    ## /Users/ericlei/Documents/ImageProcessing/sources/lodepng.c:704:6
	movq	-8(%rbp), %rcx
	.loc	1 704 13 is_stmt 0      ## /Users/ericlei/Documents/ImageProcessing/sources/lodepng.c:704:13
	movl	20(%rcx), %edx
	.loc	1 704 25                ## /Users/ericlei/Documents/ImageProcessing/sources/lodepng.c:704:25
	movq	-8(%rbp), %rcx
	.loc	1 704 22                ## /Users/ericlei/Documents/ImageProcessing/sources/lodepng.c:704:22
	cmpl	16(%rcx), %edx
Ltmp159:
	.loc	1 704 6                 ## /Users/ericlei/Documents/ImageProcessing/sources/lodepng.c:704:6
	jb	LBB8_24
## BB#1:
Ltmp160:
	.loc	1 707 11 is_stmt 1      ## /Users/ericlei/Documents/ImageProcessing/sources/lodepng.c:707:11
	movl	$0, -28(%rbp)
LBB8_2:                                 ## =>This Inner Loop Header: Depth=1
Ltmp161:
	.loc	1 707 16 is_stmt 0 discriminator 1 ## /Users/ericlei/Documents/ImageProcessing/sources/lodepng.c:707:16
	movl	-28(%rbp), %eax
	.loc	1 707 21 discriminator 1 ## /Users/ericlei/Documents/ImageProcessing/sources/lodepng.c:707:21
	movq	-8(%rbp), %rcx
	.loc	1 707 18 discriminator 1 ## /Users/ericlei/Documents/ImageProcessing/sources/lodepng.c:707:18
	cmpl	(%rcx), %eax
Ltmp162:
	.loc	1 707 5 discriminator 1 ## /Users/ericlei/Documents/ImageProcessing/sources/lodepng.c:707:5
	je	LBB8_5
## BB#3:                                ##   in Loop: Header=BB8_2 Depth=1
Ltmp163:
	.loc	1 707 42 discriminator 2 ## /Users/ericlei/Documents/ImageProcessing/sources/lodepng.c:707:42
	movl	-28(%rbp), %eax
	movl	%eax, %ecx
	movq	-8(%rbp), %rdx
	imulq	$24, %rcx, %rcx
	addq	8(%rdx), %rcx
	.loc	1 707 66 discriminator 2 ## /Users/ericlei/Documents/ImageProcessing/sources/lodepng.c:707:66
	movl	$0, 16(%rcx)
## BB#4:                                ##   in Loop: Header=BB8_2 Depth=1
	.loc	1 707 37 discriminator 3 ## /Users/ericlei/Documents/ImageProcessing/sources/lodepng.c:707:37
	movl	-28(%rbp), %eax
	addl	$1, %eax
	movl	%eax, -28(%rbp)
	.loc	1 707 5 discriminator 3 ## /Users/ericlei/Documents/ImageProcessing/sources/lodepng.c:707:5
	jmp	LBB8_2
Ltmp164:
LBB8_5:
	.loc	1 708 11 is_stmt 1      ## /Users/ericlei/Documents/ImageProcessing/sources/lodepng.c:708:11
	movl	$0, -28(%rbp)
LBB8_6:                                 ## =>This Loop Header: Depth=1
                                        ##     Child Loop BB8_8 Depth 2
                                        ##     Child Loop BB8_12 Depth 2
Ltmp165:
	.loc	1 708 16 is_stmt 0 discriminator 1 ## /Users/ericlei/Documents/ImageProcessing/sources/lodepng.c:708:16
	movl	-28(%rbp), %eax
	.loc	1 708 21 discriminator 1 ## /Users/ericlei/Documents/ImageProcessing/sources/lodepng.c:708:21
	movq	-8(%rbp), %rcx
	.loc	1 708 18 discriminator 1 ## /Users/ericlei/Documents/ImageProcessing/sources/lodepng.c:708:18
	cmpl	32(%rcx), %eax
Ltmp166:
	.loc	1 708 5 discriminator 1 ## /Users/ericlei/Documents/ImageProcessing/sources/lodepng.c:708:5
	je	LBB8_17
## BB#7:                                ##   in Loop: Header=BB8_6 Depth=1
Ltmp167:
	.loc	1 711 18 is_stmt 1      ## /Users/ericlei/Documents/ImageProcessing/sources/lodepng.c:711:18
	movl	-28(%rbp), %eax
	movl	%eax, %ecx
	movq	-8(%rbp), %rdx
	.loc	1 711 25 is_stmt 0      ## /Users/ericlei/Documents/ImageProcessing/sources/lodepng.c:711:25
	movq	40(%rdx), %rdx
	.loc	1 711 18                ## /Users/ericlei/Documents/ImageProcessing/sources/lodepng.c:711:18
	movq	(%rdx,%rcx,8), %rcx
	.loc	1 711 16                ## /Users/ericlei/Documents/ImageProcessing/sources/lodepng.c:711:16
	movq	%rcx, -48(%rbp)
LBB8_8:                                 ##   Parent Loop BB8_6 Depth=1
                                        ## =>  This Inner Loop Header: Depth=2
Ltmp168:
	.loc	1 711 42 discriminator 1 ## /Users/ericlei/Documents/ImageProcessing/sources/lodepng.c:711:42
	cmpq	$0, -48(%rbp)
Ltmp169:
	.loc	1 711 7 discriminator 1 ## /Users/ericlei/Documents/ImageProcessing/sources/lodepng.c:711:7
	je	LBB8_11
## BB#9:                                ##   in Loop: Header=BB8_8 Depth=2
Ltmp170:
	.loc	1 711 67 discriminator 2 ## /Users/ericlei/Documents/ImageProcessing/sources/lodepng.c:711:67
	movq	-48(%rbp), %rax
	.loc	1 711 80 discriminator 2 ## /Users/ericlei/Documents/ImageProcessing/sources/lodepng.c:711:80
	movl	$1, 16(%rax)
## BB#10:                               ##   in Loop: Header=BB8_8 Depth=2
	.loc	1 711 55 discriminator 3 ## /Users/ericlei/Documents/ImageProcessing/sources/lodepng.c:711:55
	movq	-48(%rbp), %rax
	.loc	1 711 61 discriminator 3 ## /Users/ericlei/Documents/ImageProcessing/sources/lodepng.c:711:61
	movq	8(%rax), %rax
	.loc	1 711 53 discriminator 3 ## /Users/ericlei/Documents/ImageProcessing/sources/lodepng.c:711:53
	movq	%rax, -48(%rbp)
	.loc	1 711 7 discriminator 3 ## /Users/ericlei/Documents/ImageProcessing/sources/lodepng.c:711:7
	jmp	LBB8_8
Ltmp171:
LBB8_11:                                ##   in Loop: Header=BB8_6 Depth=1
	.loc	1 712 18 is_stmt 1      ## /Users/ericlei/Documents/ImageProcessing/sources/lodepng.c:712:18
	movl	-28(%rbp), %eax
	movl	%eax, %ecx
	movq	-8(%rbp), %rdx
	.loc	1 712 25 is_stmt 0      ## /Users/ericlei/Documents/ImageProcessing/sources/lodepng.c:712:25
	movq	48(%rdx), %rdx
	.loc	1 712 18                ## /Users/ericlei/Documents/ImageProcessing/sources/lodepng.c:712:18
	movq	(%rdx,%rcx,8), %rcx
	.loc	1 712 16                ## /Users/ericlei/Documents/ImageProcessing/sources/lodepng.c:712:16
	movq	%rcx, -48(%rbp)
LBB8_12:                                ##   Parent Loop BB8_6 Depth=1
                                        ## =>  This Inner Loop Header: Depth=2
Ltmp172:
	.loc	1 712 42 discriminator 1 ## /Users/ericlei/Documents/ImageProcessing/sources/lodepng.c:712:42
	cmpq	$0, -48(%rbp)
Ltmp173:
	.loc	1 712 7 discriminator 1 ## /Users/ericlei/Documents/ImageProcessing/sources/lodepng.c:712:7
	je	LBB8_15
## BB#13:                               ##   in Loop: Header=BB8_12 Depth=2
Ltmp174:
	.loc	1 712 67 discriminator 2 ## /Users/ericlei/Documents/ImageProcessing/sources/lodepng.c:712:67
	movq	-48(%rbp), %rax
	.loc	1 712 80 discriminator 2 ## /Users/ericlei/Documents/ImageProcessing/sources/lodepng.c:712:80
	movl	$1, 16(%rax)
## BB#14:                               ##   in Loop: Header=BB8_12 Depth=2
	.loc	1 712 55 discriminator 3 ## /Users/ericlei/Documents/ImageProcessing/sources/lodepng.c:712:55
	movq	-48(%rbp), %rax
	.loc	1 712 61 discriminator 3 ## /Users/ericlei/Documents/ImageProcessing/sources/lodepng.c:712:61
	movq	8(%rax), %rax
	.loc	1 712 53 discriminator 3 ## /Users/ericlei/Documents/ImageProcessing/sources/lodepng.c:712:53
	movq	%rax, -48(%rbp)
	.loc	1 712 7 discriminator 3 ## /Users/ericlei/Documents/ImageProcessing/sources/lodepng.c:712:7
	jmp	LBB8_12
Ltmp175:
LBB8_15:                                ##   in Loop: Header=BB8_6 Depth=1
	.loc	1 713 5 is_stmt 1       ## /Users/ericlei/Documents/ImageProcessing/sources/lodepng.c:713:5
	jmp	LBB8_16
Ltmp176:
LBB8_16:                                ##   in Loop: Header=BB8_6 Depth=1
	.loc	1 708 38 discriminator 2 ## /Users/ericlei/Documents/ImageProcessing/sources/lodepng.c:708:38
	movl	-28(%rbp), %eax
	addl	$1, %eax
	movl	%eax, -28(%rbp)
	.loc	1 708 5 is_stmt 0 discriminator 2 ## /Users/ericlei/Documents/ImageProcessing/sources/lodepng.c:708:5
	jmp	LBB8_6
Ltmp177:
LBB8_17:
	.loc	1 715 5 is_stmt 1       ## /Users/ericlei/Documents/ImageProcessing/sources/lodepng.c:715:5
	movq	-8(%rbp), %rax
	.loc	1 715 20 is_stmt 0      ## /Users/ericlei/Documents/ImageProcessing/sources/lodepng.c:715:20
	movl	$0, 16(%rax)
Ltmp178:
	.loc	1 716 11 is_stmt 1      ## /Users/ericlei/Documents/ImageProcessing/sources/lodepng.c:716:11
	movl	$0, -28(%rbp)
LBB8_18:                                ## =>This Inner Loop Header: Depth=1
Ltmp179:
	.loc	1 716 16 is_stmt 0 discriminator 1 ## /Users/ericlei/Documents/ImageProcessing/sources/lodepng.c:716:16
	movl	-28(%rbp), %eax
	.loc	1 716 21 discriminator 1 ## /Users/ericlei/Documents/ImageProcessing/sources/lodepng.c:716:21
	movq	-8(%rbp), %rcx
	.loc	1 716 18 discriminator 1 ## /Users/ericlei/Documents/ImageProcessing/sources/lodepng.c:716:18
	cmpl	(%rcx), %eax
Ltmp180:
	.loc	1 716 5 discriminator 1 ## /Users/ericlei/Documents/ImageProcessing/sources/lodepng.c:716:5
	je	LBB8_23
## BB#19:                               ##   in Loop: Header=BB8_18 Depth=1
Ltmp181:
	.loc	1 718 11 is_stmt 1      ## /Users/ericlei/Documents/ImageProcessing/sources/lodepng.c:718:11
	movl	-28(%rbp), %eax
	movl	%eax, %ecx
	movq	-8(%rbp), %rdx
	imulq	$24, %rcx, %rcx
	addq	8(%rdx), %rcx
	cmpl	$0, 16(%rcx)
Ltmp182:
	.loc	1 718 10 is_stmt 0      ## /Users/ericlei/Documents/ImageProcessing/sources/lodepng.c:718:10
	jne	LBB8_21
## BB#20:                               ##   in Loop: Header=BB8_18 Depth=1
Ltmp183:
	.loc	1 718 73 discriminator 1 ## /Users/ericlei/Documents/ImageProcessing/sources/lodepng.c:718:73
	movl	-28(%rbp), %eax
	movl	%eax, %ecx
	movq	-8(%rbp), %rdx
	imulq	$24, %rcx, %rcx
	addq	8(%rdx), %rcx
	.loc	1 718 52 discriminator 1 ## /Users/ericlei/Documents/ImageProcessing/sources/lodepng.c:718:52
	movq	-8(%rbp), %rdx
	.loc	1 718 66 discriminator 1 ## /Users/ericlei/Documents/ImageProcessing/sources/lodepng.c:718:66
	movl	16(%rdx), %eax
	movl	%eax, %esi
	addl	$1, %esi
	movl	%esi, 16(%rdx)
	.loc	1 718 36 discriminator 1 ## /Users/ericlei/Documents/ImageProcessing/sources/lodepng.c:718:36
	movl	%eax, %eax
	movl	%eax, %edx
	movq	-8(%rbp), %rdi
	.loc	1 718 43 discriminator 1 ## /Users/ericlei/Documents/ImageProcessing/sources/lodepng.c:718:43
	movq	24(%rdi), %rdi
	.loc	1 718 70 discriminator 1 ## /Users/ericlei/Documents/ImageProcessing/sources/lodepng.c:718:70
	movq	%rcx, (%rdi,%rdx,8)
Ltmp184:
LBB8_21:                                ##   in Loop: Header=BB8_18 Depth=1
	.loc	1 719 5 is_stmt 1       ## /Users/ericlei/Documents/ImageProcessing/sources/lodepng.c:719:5
	jmp	LBB8_22
Ltmp185:
LBB8_22:                                ##   in Loop: Header=BB8_18 Depth=1
	.loc	1 716 37 discriminator 2 ## /Users/ericlei/Documents/ImageProcessing/sources/lodepng.c:716:37
	movl	-28(%rbp), %eax
	addl	$1, %eax
	movl	%eax, -28(%rbp)
	.loc	1 716 5 is_stmt 0 discriminator 2 ## /Users/ericlei/Documents/ImageProcessing/sources/lodepng.c:716:5
	jmp	LBB8_18
Ltmp186:
LBB8_23:
	.loc	1 720 5 is_stmt 1       ## /Users/ericlei/Documents/ImageProcessing/sources/lodepng.c:720:5
	movq	-8(%rbp), %rax
	.loc	1 720 21 is_stmt 0      ## /Users/ericlei/Documents/ImageProcessing/sources/lodepng.c:720:21
	movl	$0, 20(%rax)
Ltmp187:
LBB8_24:
	.loc	1 723 28 is_stmt 1      ## /Users/ericlei/Documents/ImageProcessing/sources/lodepng.c:723:28
	movq	-8(%rbp), %rax
	.loc	1 723 43 is_stmt 0      ## /Users/ericlei/Documents/ImageProcessing/sources/lodepng.c:723:43
	movl	20(%rax), %ecx
	movl	%ecx, %edx
	addl	$1, %edx
	movl	%edx, 20(%rax)
	.loc	1 723 12                ## /Users/ericlei/Documents/ImageProcessing/sources/lodepng.c:723:12
	movl	%ecx, %ecx
	movl	%ecx, %eax
	movq	-8(%rbp), %rsi
	.loc	1 723 19                ## /Users/ericlei/Documents/ImageProcessing/sources/lodepng.c:723:19
	movq	24(%rsi), %rsi
	.loc	1 723 12                ## /Users/ericlei/Documents/ImageProcessing/sources/lodepng.c:723:12
	movq	(%rsi,%rax,8), %rax
	.loc	1 723 10                ## /Users/ericlei/Documents/ImageProcessing/sources/lodepng.c:723:10
	movq	%rax, -40(%rbp)
	.loc	1 724 20 is_stmt 1      ## /Users/ericlei/Documents/ImageProcessing/sources/lodepng.c:724:20
	movl	-12(%rbp), %ecx
	.loc	1 724 3 is_stmt 0       ## /Users/ericlei/Documents/ImageProcessing/sources/lodepng.c:724:3
	movq	-40(%rbp), %rax
	.loc	1 724 18                ## /Users/ericlei/Documents/ImageProcessing/sources/lodepng.c:724:18
	movl	%ecx, (%rax)
	.loc	1 725 19 is_stmt 1      ## /Users/ericlei/Documents/ImageProcessing/sources/lodepng.c:725:19
	movl	-16(%rbp), %ecx
	.loc	1 725 3 is_stmt 0       ## /Users/ericlei/Documents/ImageProcessing/sources/lodepng.c:725:3
	movq	-40(%rbp), %rax
	.loc	1 725 17                ## /Users/ericlei/Documents/ImageProcessing/sources/lodepng.c:725:17
	movl	%ecx, 4(%rax)
	.loc	1 726 18 is_stmt 1      ## /Users/ericlei/Documents/ImageProcessing/sources/lodepng.c:726:18
	movq	-24(%rbp), %rax
	.loc	1 726 3 is_stmt 0       ## /Users/ericlei/Documents/ImageProcessing/sources/lodepng.c:726:3
	movq	-40(%rbp), %rsi
	.loc	1 726 16                ## /Users/ericlei/Documents/ImageProcessing/sources/lodepng.c:726:16
	movq	%rax, 8(%rsi)
	.loc	1 727 10 is_stmt 1      ## /Users/ericlei/Documents/ImageProcessing/sources/lodepng.c:727:10
	movq	-40(%rbp), %rax
	.loc	1 727 3 is_stmt 0       ## /Users/ericlei/Documents/ImageProcessing/sources/lodepng.c:727:3
	popq	%rbp
	retq
Ltmp188:
Lfunc_end8:
	.cfi_endproc

	.p2align	4, 0x90
_boundaryPM:                            ## @boundaryPM
Lfunc_begin9:
	.loc	1 759 0 is_stmt 1       ## /Users/ericlei/Documents/ImageProcessing/sources/lodepng.c:759:0
	.cfi_startproc
## BB#0:
	pushq	%rbp
Ltmp189:
	.cfi_def_cfa_offset 16
Ltmp190:
	.cfi_offset %rbp, -16
	movq	%rsp, %rbp
Ltmp191:
	.cfi_def_cfa_register %rbp
	subq	$48, %rsp
	movq	%rdi, -8(%rbp)
	movq	%rsi, -16(%rbp)
	movq	%rdx, -24(%rbp)
	movl	%ecx, -28(%rbp)
	movl	%r8d, -32(%rbp)
Ltmp192:
	.loc	1 760 24 prologue_end   ## /Users/ericlei/Documents/ImageProcessing/sources/lodepng.c:760:24
	movslq	-28(%rbp), %rdx
	movq	-8(%rbp), %rsi
	.loc	1 760 31 is_stmt 0      ## /Users/ericlei/Documents/ImageProcessing/sources/lodepng.c:760:31
	movq	48(%rsi), %rsi
	.loc	1 760 24                ## /Users/ericlei/Documents/ImageProcessing/sources/lodepng.c:760:24
	movq	(%rsi,%rdx,8), %rdx
	.loc	1 760 43                ## /Users/ericlei/Documents/ImageProcessing/sources/lodepng.c:760:43
	movl	4(%rdx), %ecx
	.loc	1 760 12                ## /Users/ericlei/Documents/ImageProcessing/sources/lodepng.c:760:12
	movl	%ecx, -36(%rbp)
Ltmp193:
	.loc	1 762 8 is_stmt 1       ## /Users/ericlei/Documents/ImageProcessing/sources/lodepng.c:762:8
	cmpl	$0, -28(%rbp)
Ltmp194:
	.loc	1 762 6 is_stmt 0       ## /Users/ericlei/Documents/ImageProcessing/sources/lodepng.c:762:6
	jne	LBB9_4
## BB#1:
Ltmp195:
	.loc	1 764 8 is_stmt 1       ## /Users/ericlei/Documents/ImageProcessing/sources/lodepng.c:764:8
	movl	-36(%rbp), %eax
	movl	%eax, %ecx
	.loc	1 764 18 is_stmt 0      ## /Users/ericlei/Documents/ImageProcessing/sources/lodepng.c:764:18
	cmpq	-24(%rbp), %rcx
Ltmp196:
	.loc	1 764 8                 ## /Users/ericlei/Documents/ImageProcessing/sources/lodepng.c:764:8
	jb	LBB9_3
## BB#2:
Ltmp197:
	.loc	1 764 33 discriminator 1 ## /Users/ericlei/Documents/ImageProcessing/sources/lodepng.c:764:33
	jmp	LBB9_10
Ltmp198:
LBB9_3:
	xorl	%eax, %eax
	movl	%eax, %ecx
	.loc	1 765 25 is_stmt 1      ## /Users/ericlei/Documents/ImageProcessing/sources/lodepng.c:765:25
	movslq	-28(%rbp), %rdx
	movq	-8(%rbp), %rsi
	.loc	1 765 32 is_stmt 0      ## /Users/ericlei/Documents/ImageProcessing/sources/lodepng.c:765:32
	movq	48(%rsi), %rsi
	.loc	1 765 25                ## /Users/ericlei/Documents/ImageProcessing/sources/lodepng.c:765:25
	movq	(%rsi,%rdx,8), %rdx
	.loc	1 765 5                 ## /Users/ericlei/Documents/ImageProcessing/sources/lodepng.c:765:5
	movslq	-28(%rbp), %rsi
	movq	-8(%rbp), %rdi
	.loc	1 765 12                ## /Users/ericlei/Documents/ImageProcessing/sources/lodepng.c:765:12
	movq	40(%rdi), %rdi
	.loc	1 765 23                ## /Users/ericlei/Documents/ImageProcessing/sources/lodepng.c:765:23
	movq	%rdx, (%rdi,%rsi,8)
	.loc	1 766 40 is_stmt 1      ## /Users/ericlei/Documents/ImageProcessing/sources/lodepng.c:766:40
	movq	-8(%rbp), %rdi
	.loc	1 766 47 is_stmt 0      ## /Users/ericlei/Documents/ImageProcessing/sources/lodepng.c:766:47
	movl	-36(%rbp), %eax
	movl	%eax, %edx
	imulq	$24, %rdx, %rdx
	addq	-16(%rbp), %rdx
	.loc	1 766 65                ## /Users/ericlei/Documents/ImageProcessing/sources/lodepng.c:766:65
	movl	(%rdx), %esi
	.loc	1 766 73                ## /Users/ericlei/Documents/ImageProcessing/sources/lodepng.c:766:73
	movl	-36(%rbp), %eax
	.loc	1 766 83                ## /Users/ericlei/Documents/ImageProcessing/sources/lodepng.c:766:83
	addl	$1, %eax
	.loc	1 766 25                ## /Users/ericlei/Documents/ImageProcessing/sources/lodepng.c:766:25
	movl	%eax, %edx
	callq	_bpmnode_create
	.loc	1 766 5                 ## /Users/ericlei/Documents/ImageProcessing/sources/lodepng.c:766:5
	movslq	-28(%rbp), %rcx
	movq	-8(%rbp), %rdi
	.loc	1 766 12                ## /Users/ericlei/Documents/ImageProcessing/sources/lodepng.c:766:12
	movq	48(%rdi), %rdi
	.loc	1 766 23                ## /Users/ericlei/Documents/ImageProcessing/sources/lodepng.c:766:23
	movq	%rax, (%rdi,%rcx,8)
	.loc	1 767 3 is_stmt 1       ## /Users/ericlei/Documents/ImageProcessing/sources/lodepng.c:767:3
	jmp	LBB9_10
Ltmp199:
LBB9_4:
	.loc	1 771 30                ## /Users/ericlei/Documents/ImageProcessing/sources/lodepng.c:771:30
	movl	-28(%rbp), %eax
	.loc	1 771 32 is_stmt 0      ## /Users/ericlei/Documents/ImageProcessing/sources/lodepng.c:771:32
	subl	$1, %eax
	.loc	1 771 15                ## /Users/ericlei/Documents/ImageProcessing/sources/lodepng.c:771:15
	movslq	%eax, %rcx
	movq	-8(%rbp), %rdx
	.loc	1 771 22                ## /Users/ericlei/Documents/ImageProcessing/sources/lodepng.c:771:22
	movq	40(%rdx), %rdx
	.loc	1 771 15                ## /Users/ericlei/Documents/ImageProcessing/sources/lodepng.c:771:15
	movq	(%rdx,%rcx,8), %rcx
	.loc	1 771 38                ## /Users/ericlei/Documents/ImageProcessing/sources/lodepng.c:771:38
	movl	(%rcx), %eax
	.loc	1 771 62                ## /Users/ericlei/Documents/ImageProcessing/sources/lodepng.c:771:62
	movl	-28(%rbp), %esi
	.loc	1 771 64                ## /Users/ericlei/Documents/ImageProcessing/sources/lodepng.c:771:64
	subl	$1, %esi
	.loc	1 771 47                ## /Users/ericlei/Documents/ImageProcessing/sources/lodepng.c:771:47
	movslq	%esi, %rcx
	movq	-8(%rbp), %rdx
	.loc	1 771 54                ## /Users/ericlei/Documents/ImageProcessing/sources/lodepng.c:771:54
	movq	48(%rdx), %rdx
	.loc	1 771 47                ## /Users/ericlei/Documents/ImageProcessing/sources/lodepng.c:771:47
	movq	(%rdx,%rcx,8), %rcx
	.loc	1 771 45                ## /Users/ericlei/Documents/ImageProcessing/sources/lodepng.c:771:45
	addl	(%rcx), %eax
	.loc	1 771 9                 ## /Users/ericlei/Documents/ImageProcessing/sources/lodepng.c:771:9
	movl	%eax, -40(%rbp)
	.loc	1 772 25 is_stmt 1      ## /Users/ericlei/Documents/ImageProcessing/sources/lodepng.c:772:25
	movslq	-28(%rbp), %rcx
	movq	-8(%rbp), %rdx
	.loc	1 772 32 is_stmt 0      ## /Users/ericlei/Documents/ImageProcessing/sources/lodepng.c:772:32
	movq	48(%rdx), %rdx
	.loc	1 772 25                ## /Users/ericlei/Documents/ImageProcessing/sources/lodepng.c:772:25
	movq	(%rdx,%rcx,8), %rcx
	.loc	1 772 5                 ## /Users/ericlei/Documents/ImageProcessing/sources/lodepng.c:772:5
	movslq	-28(%rbp), %rdx
	movq	-8(%rbp), %rdi
	.loc	1 772 12                ## /Users/ericlei/Documents/ImageProcessing/sources/lodepng.c:772:12
	movq	40(%rdi), %rdi
	.loc	1 772 23                ## /Users/ericlei/Documents/ImageProcessing/sources/lodepng.c:772:23
	movq	%rcx, (%rdi,%rdx,8)
Ltmp200:
	.loc	1 773 8 is_stmt 1       ## /Users/ericlei/Documents/ImageProcessing/sources/lodepng.c:773:8
	movl	-36(%rbp), %eax
	movl	%eax, %ecx
	.loc	1 773 18 is_stmt 0      ## /Users/ericlei/Documents/ImageProcessing/sources/lodepng.c:773:18
	cmpq	-24(%rbp), %rcx
	.loc	1 773 31                ## /Users/ericlei/Documents/ImageProcessing/sources/lodepng.c:773:31
	jae	LBB9_7
## BB#5:
	.loc	1 773 34 discriminator 1 ## /Users/ericlei/Documents/ImageProcessing/sources/lodepng.c:773:34
	movl	-40(%rbp), %eax
	.loc	1 773 40 discriminator 1 ## /Users/ericlei/Documents/ImageProcessing/sources/lodepng.c:773:40
	movl	-36(%rbp), %ecx
	movl	%ecx, %edx
	imulq	$24, %rdx, %rdx
	addq	-16(%rbp), %rdx
	.loc	1 773 38 discriminator 1 ## /Users/ericlei/Documents/ImageProcessing/sources/lodepng.c:773:38
	cmpl	(%rdx), %eax
Ltmp201:
	.loc	1 773 8 discriminator 1 ## /Users/ericlei/Documents/ImageProcessing/sources/lodepng.c:773:8
	jle	LBB9_7
## BB#6:
Ltmp202:
	.loc	1 775 42 is_stmt 1      ## /Users/ericlei/Documents/ImageProcessing/sources/lodepng.c:775:42
	movq	-8(%rbp), %rdi
	.loc	1 775 49 is_stmt 0      ## /Users/ericlei/Documents/ImageProcessing/sources/lodepng.c:775:49
	movl	-36(%rbp), %eax
	movl	%eax, %ecx
	imulq	$24, %rcx, %rcx
	addq	-16(%rbp), %rcx
	.loc	1 775 67                ## /Users/ericlei/Documents/ImageProcessing/sources/lodepng.c:775:67
	movl	(%rcx), %esi
	.loc	1 775 75                ## /Users/ericlei/Documents/ImageProcessing/sources/lodepng.c:775:75
	movl	-36(%rbp), %eax
	.loc	1 775 85                ## /Users/ericlei/Documents/ImageProcessing/sources/lodepng.c:775:85
	addl	$1, %eax
	.loc	1 775 90                ## /Users/ericlei/Documents/ImageProcessing/sources/lodepng.c:775:90
	movslq	-28(%rbp), %rcx
	movq	-8(%rbp), %rdx
	.loc	1 775 97                ## /Users/ericlei/Documents/ImageProcessing/sources/lodepng.c:775:97
	movq	48(%rdx), %rdx
	.loc	1 775 90                ## /Users/ericlei/Documents/ImageProcessing/sources/lodepng.c:775:90
	movq	(%rdx,%rcx,8), %rcx
	.loc	1 775 109               ## /Users/ericlei/Documents/ImageProcessing/sources/lodepng.c:775:109
	movq	8(%rcx), %rcx
	.loc	1 775 27                ## /Users/ericlei/Documents/ImageProcessing/sources/lodepng.c:775:27
	movl	%eax, %edx
	callq	_bpmnode_create
	.loc	1 775 7                 ## /Users/ericlei/Documents/ImageProcessing/sources/lodepng.c:775:7
	movslq	-28(%rbp), %rcx
	movq	-8(%rbp), %rdi
	.loc	1 775 14                ## /Users/ericlei/Documents/ImageProcessing/sources/lodepng.c:775:14
	movq	48(%rdi), %rdi
	.loc	1 775 25                ## /Users/ericlei/Documents/ImageProcessing/sources/lodepng.c:775:25
	movq	%rax, (%rdi,%rcx,8)
	.loc	1 776 7 is_stmt 1       ## /Users/ericlei/Documents/ImageProcessing/sources/lodepng.c:776:7
	jmp	LBB9_10
Ltmp203:
LBB9_7:
	.loc	1 778 40                ## /Users/ericlei/Documents/ImageProcessing/sources/lodepng.c:778:40
	movq	-8(%rbp), %rdi
	.loc	1 778 47 is_stmt 0      ## /Users/ericlei/Documents/ImageProcessing/sources/lodepng.c:778:47
	movl	-40(%rbp), %esi
	.loc	1 778 52                ## /Users/ericlei/Documents/ImageProcessing/sources/lodepng.c:778:52
	movl	-36(%rbp), %edx
	.loc	1 778 78                ## /Users/ericlei/Documents/ImageProcessing/sources/lodepng.c:778:78
	movl	-28(%rbp), %eax
	.loc	1 778 80                ## /Users/ericlei/Documents/ImageProcessing/sources/lodepng.c:778:80
	subl	$1, %eax
	.loc	1 778 63                ## /Users/ericlei/Documents/ImageProcessing/sources/lodepng.c:778:63
	movslq	%eax, %rcx
	movq	-8(%rbp), %r8
	.loc	1 778 70                ## /Users/ericlei/Documents/ImageProcessing/sources/lodepng.c:778:70
	movq	48(%r8), %r8
	.loc	1 778 63                ## /Users/ericlei/Documents/ImageProcessing/sources/lodepng.c:778:63
	movq	(%r8,%rcx,8), %rcx
	.loc	1 778 25                ## /Users/ericlei/Documents/ImageProcessing/sources/lodepng.c:778:25
	callq	_bpmnode_create
	.loc	1 778 5                 ## /Users/ericlei/Documents/ImageProcessing/sources/lodepng.c:778:5
	movslq	-28(%rbp), %rcx
	movq	-8(%rbp), %rdi
	.loc	1 778 12                ## /Users/ericlei/Documents/ImageProcessing/sources/lodepng.c:778:12
	movq	48(%rdi), %rdi
	.loc	1 778 23                ## /Users/ericlei/Documents/ImageProcessing/sources/lodepng.c:778:23
	movq	%rax, (%rdi,%rcx,8)
Ltmp204:
	.loc	1 781 8 is_stmt 1       ## /Users/ericlei/Documents/ImageProcessing/sources/lodepng.c:781:8
	movl	-32(%rbp), %edx
	.loc	1 781 12 is_stmt 0      ## /Users/ericlei/Documents/ImageProcessing/sources/lodepng.c:781:12
	addl	$1, %edx
	.loc	1 781 28                ## /Users/ericlei/Documents/ImageProcessing/sources/lodepng.c:781:28
	movq	-24(%rbp), %rax
	.loc	1 781 26                ## /Users/ericlei/Documents/ImageProcessing/sources/lodepng.c:781:26
	shlq	$1, %rax
	.loc	1 781 39                ## /Users/ericlei/Documents/ImageProcessing/sources/lodepng.c:781:39
	subq	$2, %rax
	.loc	1 781 18                ## /Users/ericlei/Documents/ImageProcessing/sources/lodepng.c:781:18
	movl	%eax, %esi
	.loc	1 781 16                ## /Users/ericlei/Documents/ImageProcessing/sources/lodepng.c:781:16
	cmpl	%esi, %edx
Ltmp205:
	.loc	1 781 8                 ## /Users/ericlei/Documents/ImageProcessing/sources/lodepng.c:781:8
	jge	LBB9_9
## BB#8:
Ltmp206:
	.loc	1 783 18 is_stmt 1      ## /Users/ericlei/Documents/ImageProcessing/sources/lodepng.c:783:18
	movq	-8(%rbp), %rdi
	.loc	1 783 25 is_stmt 0      ## /Users/ericlei/Documents/ImageProcessing/sources/lodepng.c:783:25
	movq	-16(%rbp), %rsi
	.loc	1 783 33                ## /Users/ericlei/Documents/ImageProcessing/sources/lodepng.c:783:33
	movq	-24(%rbp), %rdx
	.loc	1 783 45                ## /Users/ericlei/Documents/ImageProcessing/sources/lodepng.c:783:45
	movl	-28(%rbp), %eax
	.loc	1 783 47                ## /Users/ericlei/Documents/ImageProcessing/sources/lodepng.c:783:47
	subl	$1, %eax
	.loc	1 783 52                ## /Users/ericlei/Documents/ImageProcessing/sources/lodepng.c:783:52
	movl	-32(%rbp), %r8d
	.loc	1 783 7                 ## /Users/ericlei/Documents/ImageProcessing/sources/lodepng.c:783:7
	movl	%eax, %ecx
	callq	_boundaryPM
	.loc	1 784 18 is_stmt 1      ## /Users/ericlei/Documents/ImageProcessing/sources/lodepng.c:784:18
	movq	-8(%rbp), %rdi
	.loc	1 784 25 is_stmt 0      ## /Users/ericlei/Documents/ImageProcessing/sources/lodepng.c:784:25
	movq	-16(%rbp), %rsi
	.loc	1 784 33                ## /Users/ericlei/Documents/ImageProcessing/sources/lodepng.c:784:33
	movq	-24(%rbp), %rdx
	.loc	1 784 45                ## /Users/ericlei/Documents/ImageProcessing/sources/lodepng.c:784:45
	movl	-28(%rbp), %eax
	.loc	1 784 47                ## /Users/ericlei/Documents/ImageProcessing/sources/lodepng.c:784:47
	subl	$1, %eax
	.loc	1 784 52                ## /Users/ericlei/Documents/ImageProcessing/sources/lodepng.c:784:52
	movl	-32(%rbp), %r8d
	.loc	1 784 7                 ## /Users/ericlei/Documents/ImageProcessing/sources/lodepng.c:784:7
	movl	%eax, %ecx
	callq	_boundaryPM
Ltmp207:
LBB9_9:
	jmp	LBB9_10
LBB9_10:
	.loc	1 787 1 is_stmt 1       ## /Users/ericlei/Documents/ImageProcessing/sources/lodepng.c:787:1
	addq	$48, %rsp
	popq	%rbp
	retq
Ltmp208:
Lfunc_end9:
	.cfi_endproc

	.p2align	4, 0x90
_lodepng_free:                          ## @lodepng_free
Lfunc_begin10:
	.loc	1 74 0                  ## /Users/ericlei/Documents/ImageProcessing/sources/lodepng.c:74:0
	.cfi_startproc
## BB#0:
	pushq	%rbp
Ltmp209:
	.cfi_def_cfa_offset 16
Ltmp210:
	.cfi_offset %rbp, -16
	movq	%rsp, %rbp
Ltmp211:
	.cfi_def_cfa_register %rbp
	subq	$16, %rsp
	movq	%rdi, -8(%rbp)
Ltmp212:
	.loc	1 75 8 prologue_end     ## /Users/ericlei/Documents/ImageProcessing/sources/lodepng.c:75:8
	movq	-8(%rbp), %rdi
	.loc	1 75 3 is_stmt 0        ## /Users/ericlei/Documents/ImageProcessing/sources/lodepng.c:75:3
	callq	_free
	.loc	1 76 1 is_stmt 1        ## /Users/ericlei/Documents/ImageProcessing/sources/lodepng.c:76:1
	addq	$16, %rsp
	popq	%rbp
	retq
Ltmp213:
Lfunc_end10:
	.cfi_endproc

	.globl	_lodepng_inflate
	.p2align	4, 0x90
_lodepng_inflate:                       ## @lodepng_inflate
Lfunc_begin11:
	.loc	1 1286 0                ## /Users/ericlei/Documents/ImageProcessing/sources/lodepng.c:1286:0
	.cfi_startproc
## BB#0:
	pushq	%rbp
Ltmp214:
	.cfi_def_cfa_offset 16
Ltmp215:
	.cfi_offset %rbp, -16
	movq	%rsp, %rbp
Ltmp216:
	.cfi_def_cfa_register %rbp
	subq	$80, %rsp
	leaq	-72(%rbp), %rax
	movq	%rdi, -8(%rbp)
	movq	%rsi, -16(%rbp)
	movq	%rdx, -24(%rbp)
	movq	%rcx, -32(%rbp)
	movq	%r8, -40(%rbp)
Ltmp217:
	##DEBUG_VALUE: lodepng_inflate:v <- %RAX
	.loc	1 1289 29 prologue_end  ## /Users/ericlei/Documents/ImageProcessing/sources/lodepng.c:1289:29
	movq	-8(%rbp), %rcx
	.loc	1 1289 28 is_stmt 0     ## /Users/ericlei/Documents/ImageProcessing/sources/lodepng.c:1289:28
	movq	(%rcx), %rsi
	.loc	1 1289 35               ## /Users/ericlei/Documents/ImageProcessing/sources/lodepng.c:1289:35
	movq	-16(%rbp), %rcx
	.loc	1 1289 34               ## /Users/ericlei/Documents/ImageProcessing/sources/lodepng.c:1289:34
	movq	(%rcx), %rdx
	.loc	1 1289 3                ## /Users/ericlei/Documents/ImageProcessing/sources/lodepng.c:1289:3
	movq	%rax, %rdi
	callq	_ucvector_init_buffer
Ltmp218:
	leaq	-72(%rbp), %rdi
	.loc	1 1290 32 is_stmt 1     ## /Users/ericlei/Documents/ImageProcessing/sources/lodepng.c:1290:32
	movq	-24(%rbp), %rsi
	.loc	1 1290 36 is_stmt 0     ## /Users/ericlei/Documents/ImageProcessing/sources/lodepng.c:1290:36
	movq	-32(%rbp), %rdx
	.loc	1 1290 44               ## /Users/ericlei/Documents/ImageProcessing/sources/lodepng.c:1290:44
	movq	-40(%rbp), %rcx
	.loc	1 1290 11               ## /Users/ericlei/Documents/ImageProcessing/sources/lodepng.c:1290:11
	callq	_lodepng_inflatev
	.loc	1 1290 9                ## /Users/ericlei/Documents/ImageProcessing/sources/lodepng.c:1290:9
	movl	%eax, -44(%rbp)
	.loc	1 1291 12 is_stmt 1     ## /Users/ericlei/Documents/ImageProcessing/sources/lodepng.c:1291:12
	movq	-72(%rbp), %rcx
	.loc	1 1291 4 is_stmt 0      ## /Users/ericlei/Documents/ImageProcessing/sources/lodepng.c:1291:4
	movq	-8(%rbp), %rdx
	.loc	1 1291 8                ## /Users/ericlei/Documents/ImageProcessing/sources/lodepng.c:1291:8
	movq	%rcx, (%rdx)
	.loc	1 1292 16 is_stmt 1     ## /Users/ericlei/Documents/ImageProcessing/sources/lodepng.c:1292:16
	movq	-64(%rbp), %rcx
	.loc	1 1292 4 is_stmt 0      ## /Users/ericlei/Documents/ImageProcessing/sources/lodepng.c:1292:4
	movq	-16(%rbp), %rdx
	.loc	1 1292 12               ## /Users/ericlei/Documents/ImageProcessing/sources/lodepng.c:1292:12
	movq	%rcx, (%rdx)
	.loc	1 1293 10 is_stmt 1     ## /Users/ericlei/Documents/ImageProcessing/sources/lodepng.c:1293:10
	movl	-44(%rbp), %eax
	.loc	1 1293 3 is_stmt 0      ## /Users/ericlei/Documents/ImageProcessing/sources/lodepng.c:1293:3
	addq	$80, %rsp
	popq	%rbp
	retq
Ltmp219:
Lfunc_end11:
	.cfi_endproc

	.p2align	4, 0x90
_ucvector_init_buffer:                  ## @ucvector_init_buffer
Lfunc_begin12:
	.loc	1 257 0 is_stmt 1       ## /Users/ericlei/Documents/ImageProcessing/sources/lodepng.c:257:0
	.cfi_startproc
## BB#0:
	pushq	%rbp
Ltmp220:
	.cfi_def_cfa_offset 16
Ltmp221:
	.cfi_offset %rbp, -16
	movq	%rsp, %rbp
Ltmp222:
	.cfi_def_cfa_register %rbp
	movq	%rdi, -8(%rbp)
	movq	%rsi, -16(%rbp)
	movq	%rdx, -24(%rbp)
Ltmp223:
	.loc	1 258 13 prologue_end   ## /Users/ericlei/Documents/ImageProcessing/sources/lodepng.c:258:13
	movq	-16(%rbp), %rdx
	.loc	1 258 3 is_stmt 0       ## /Users/ericlei/Documents/ImageProcessing/sources/lodepng.c:258:3
	movq	-8(%rbp), %rsi
	.loc	1 258 11                ## /Users/ericlei/Documents/ImageProcessing/sources/lodepng.c:258:11
	movq	%rdx, (%rsi)
	.loc	1 259 28 is_stmt 1      ## /Users/ericlei/Documents/ImageProcessing/sources/lodepng.c:259:28
	movq	-24(%rbp), %rdx
	.loc	1 259 18 is_stmt 0      ## /Users/ericlei/Documents/ImageProcessing/sources/lodepng.c:259:18
	movq	-8(%rbp), %rsi
	.loc	1 259 26                ## /Users/ericlei/Documents/ImageProcessing/sources/lodepng.c:259:26
	movq	%rdx, 8(%rsi)
	.loc	1 259 3                 ## /Users/ericlei/Documents/ImageProcessing/sources/lodepng.c:259:3
	movq	-8(%rbp), %rsi
	.loc	1 259 16                ## /Users/ericlei/Documents/ImageProcessing/sources/lodepng.c:259:16
	movq	%rdx, 16(%rsi)
	.loc	1 260 1 is_stmt 1       ## /Users/ericlei/Documents/ImageProcessing/sources/lodepng.c:260:1
	popq	%rbp
	retq
Ltmp224:
Lfunc_end12:
	.cfi_endproc

	.p2align	4, 0x90
_lodepng_inflatev:                      ## @lodepng_inflatev
Lfunc_begin13:
	.loc	1 1256 0                ## /Users/ericlei/Documents/ImageProcessing/sources/lodepng.c:1256:0
	.cfi_startproc
## BB#0:
	pushq	%rbp
Ltmp225:
	.cfi_def_cfa_offset 16
Ltmp226:
	.cfi_offset %rbp, -16
	movq	%rsp, %rbp
Ltmp227:
	.cfi_def_cfa_register %rbp
	subq	$80, %rsp
	movq	%rdi, -16(%rbp)
	movq	%rsi, -24(%rbp)
	movq	%rdx, -32(%rbp)
	movq	%rcx, -40(%rbp)
Ltmp228:
	.loc	1 1258 10 prologue_end  ## /Users/ericlei/Documents/ImageProcessing/sources/lodepng.c:1258:10
	movq	$0, -48(%rbp)
	.loc	1 1259 12               ## /Users/ericlei/Documents/ImageProcessing/sources/lodepng.c:1259:12
	movl	$0, -52(%rbp)
	.loc	1 1260 10               ## /Users/ericlei/Documents/ImageProcessing/sources/lodepng.c:1260:10
	movq	$0, -64(%rbp)
	.loc	1 1261 12               ## /Users/ericlei/Documents/ImageProcessing/sources/lodepng.c:1261:12
	movl	$0, -68(%rbp)
LBB13_1:                                ## =>This Inner Loop Header: Depth=1
	.loc	1 1265 9 discriminator 1 ## /Users/ericlei/Documents/ImageProcessing/sources/lodepng.c:1265:9
	cmpl	$0, -52(%rbp)
	setne	%al
	xorb	$-1, %al
	.loc	1 1265 3 is_stmt 0 discriminator 1 ## /Users/ericlei/Documents/ImageProcessing/sources/lodepng.c:1265:3
	testb	$1, %al
	jne	LBB13_2
	jmp	LBB13_13
LBB13_2:                                ##   in Loop: Header=BB13_1 Depth=1
Ltmp229:
	.loc	1 1268 8 is_stmt 1      ## /Users/ericlei/Documents/ImageProcessing/sources/lodepng.c:1268:8
	movq	-48(%rbp), %rax
	.loc	1 1268 11 is_stmt 0     ## /Users/ericlei/Documents/ImageProcessing/sources/lodepng.c:1268:11
	addq	$2, %rax
	.loc	1 1268 18               ## /Users/ericlei/Documents/ImageProcessing/sources/lodepng.c:1268:18
	movq	-32(%rbp), %rcx
	.loc	1 1268 25               ## /Users/ericlei/Documents/ImageProcessing/sources/lodepng.c:1268:25
	shlq	$3, %rcx
	.loc	1 1268 15               ## /Users/ericlei/Documents/ImageProcessing/sources/lodepng.c:1268:15
	cmpq	%rcx, %rax
Ltmp230:
	.loc	1 1268 8                ## /Users/ericlei/Documents/ImageProcessing/sources/lodepng.c:1268:8
	jb	LBB13_4
## BB#3:
Ltmp231:
	.loc	1 1268 30 discriminator 1 ## /Users/ericlei/Documents/ImageProcessing/sources/lodepng.c:1268:30
	movl	$52, -4(%rbp)
	jmp	LBB13_14
Ltmp232:
LBB13_4:                                ##   in Loop: Header=BB13_1 Depth=1
	leaq	-48(%rbp), %rdi
	.loc	1 1269 37 is_stmt 1     ## /Users/ericlei/Documents/ImageProcessing/sources/lodepng.c:1269:37
	movq	-24(%rbp), %rsi
	.loc	1 1269 14 is_stmt 0     ## /Users/ericlei/Documents/ImageProcessing/sources/lodepng.c:1269:14
	callq	_readBitFromStream
	leaq	-48(%rbp), %rdi
	movzbl	%al, %ecx
	.loc	1 1269 12               ## /Users/ericlei/Documents/ImageProcessing/sources/lodepng.c:1269:12
	movl	%ecx, -52(%rbp)
	.loc	1 1270 41 is_stmt 1     ## /Users/ericlei/Documents/ImageProcessing/sources/lodepng.c:1270:41
	movq	-24(%rbp), %rsi
	.loc	1 1270 18 is_stmt 0     ## /Users/ericlei/Documents/ImageProcessing/sources/lodepng.c:1270:18
	callq	_readBitFromStream
	leaq	-48(%rbp), %rdi
	movzbl	%al, %ecx
	.loc	1 1270 16               ## /Users/ericlei/Documents/ImageProcessing/sources/lodepng.c:1270:16
	shll	$0, %ecx
	.loc	1 1270 11               ## /Users/ericlei/Documents/ImageProcessing/sources/lodepng.c:1270:11
	movl	%ecx, -72(%rbp)
	.loc	1 1271 42 is_stmt 1     ## /Users/ericlei/Documents/ImageProcessing/sources/lodepng.c:1271:42
	movq	-24(%rbp), %rsi
	.loc	1 1271 19 is_stmt 0     ## /Users/ericlei/Documents/ImageProcessing/sources/lodepng.c:1271:19
	callq	_readBitFromStream
	movzbl	%al, %ecx
	.loc	1 1271 17               ## /Users/ericlei/Documents/ImageProcessing/sources/lodepng.c:1271:17
	shll	$1, %ecx
	.loc	1 1271 11               ## /Users/ericlei/Documents/ImageProcessing/sources/lodepng.c:1271:11
	addl	-72(%rbp), %ecx
	movl	%ecx, -72(%rbp)
Ltmp233:
	.loc	1 1273 14 is_stmt 1     ## /Users/ericlei/Documents/ImageProcessing/sources/lodepng.c:1273:14
	cmpl	$3, -72(%rbp)
Ltmp234:
	.loc	1 1273 8 is_stmt 0      ## /Users/ericlei/Documents/ImageProcessing/sources/lodepng.c:1273:8
	jne	LBB13_6
## BB#5:
Ltmp235:
	.loc	1 1273 20 discriminator 1 ## /Users/ericlei/Documents/ImageProcessing/sources/lodepng.c:1273:20
	movl	$20, -4(%rbp)
	jmp	LBB13_14
LBB13_6:                                ##   in Loop: Header=BB13_1 Depth=1
Ltmp236:
	.loc	1 1274 19 is_stmt 1     ## /Users/ericlei/Documents/ImageProcessing/sources/lodepng.c:1274:19
	cmpl	$0, -72(%rbp)
Ltmp237:
	.loc	1 1274 13 is_stmt 0     ## /Users/ericlei/Documents/ImageProcessing/sources/lodepng.c:1274:13
	jne	LBB13_8
## BB#7:                                ##   in Loop: Header=BB13_1 Depth=1
	leaq	-48(%rbp), %rdx
	leaq	-64(%rbp), %rcx
Ltmp238:
	.loc	1 1274 54 discriminator 1 ## /Users/ericlei/Documents/ImageProcessing/sources/lodepng.c:1274:54
	movq	-16(%rbp), %rdi
	.loc	1 1274 59 discriminator 1 ## /Users/ericlei/Documents/ImageProcessing/sources/lodepng.c:1274:59
	movq	-24(%rbp), %rsi
	.loc	1 1274 74 discriminator 1 ## /Users/ericlei/Documents/ImageProcessing/sources/lodepng.c:1274:74
	movq	-32(%rbp), %r8
	.loc	1 1274 33 discriminator 1 ## /Users/ericlei/Documents/ImageProcessing/sources/lodepng.c:1274:33
	callq	_inflateNoCompression
	.loc	1 1274 31 discriminator 1 ## /Users/ericlei/Documents/ImageProcessing/sources/lodepng.c:1274:31
	movl	%eax, -68(%rbp)
	.loc	1 1274 25 discriminator 1 ## /Users/ericlei/Documents/ImageProcessing/sources/lodepng.c:1274:25
	jmp	LBB13_9
LBB13_8:                                ##   in Loop: Header=BB13_1 Depth=1
	leaq	-48(%rbp), %rdx
	leaq	-64(%rbp), %rcx
	.loc	1 1275 38 is_stmt 1     ## /Users/ericlei/Documents/ImageProcessing/sources/lodepng.c:1275:38
	movq	-16(%rbp), %rdi
	.loc	1 1275 43 is_stmt 0     ## /Users/ericlei/Documents/ImageProcessing/sources/lodepng.c:1275:43
	movq	-24(%rbp), %rsi
	.loc	1 1275 58               ## /Users/ericlei/Documents/ImageProcessing/sources/lodepng.c:1275:58
	movq	-32(%rbp), %r8
	.loc	1 1275 66               ## /Users/ericlei/Documents/ImageProcessing/sources/lodepng.c:1275:66
	movl	-72(%rbp), %r9d
	.loc	1 1275 18               ## /Users/ericlei/Documents/ImageProcessing/sources/lodepng.c:1275:18
	callq	_inflateHuffmanBlock
	.loc	1 1275 16               ## /Users/ericlei/Documents/ImageProcessing/sources/lodepng.c:1275:16
	movl	%eax, -68(%rbp)
Ltmp239:
LBB13_9:                                ##   in Loop: Header=BB13_1 Depth=1
	jmp	LBB13_10
LBB13_10:                               ##   in Loop: Header=BB13_1 Depth=1
Ltmp240:
	.loc	1 1277 8 is_stmt 1      ## /Users/ericlei/Documents/ImageProcessing/sources/lodepng.c:1277:8
	cmpl	$0, -68(%rbp)
Ltmp241:
	.loc	1 1277 8 is_stmt 0      ## /Users/ericlei/Documents/ImageProcessing/sources/lodepng.c:1277:8
	je	LBB13_12
## BB#11:
Ltmp242:
	.loc	1 1277 22 discriminator 1 ## /Users/ericlei/Documents/ImageProcessing/sources/lodepng.c:1277:22
	movl	-68(%rbp), %eax
	.loc	1 1277 15 discriminator 1 ## /Users/ericlei/Documents/ImageProcessing/sources/lodepng.c:1277:15
	movl	%eax, -4(%rbp)
	jmp	LBB13_14
Ltmp243:
LBB13_12:                               ##   in Loop: Header=BB13_1 Depth=1
	.loc	1 1265 3 is_stmt 1 discriminator 2 ## /Users/ericlei/Documents/ImageProcessing/sources/lodepng.c:1265:3
	jmp	LBB13_1
LBB13_13:
	.loc	1 1280 10               ## /Users/ericlei/Documents/ImageProcessing/sources/lodepng.c:1280:10
	movl	-68(%rbp), %eax
	.loc	1 1280 3 is_stmt 0      ## /Users/ericlei/Documents/ImageProcessing/sources/lodepng.c:1280:3
	movl	%eax, -4(%rbp)
LBB13_14:
	.loc	1 1281 1 is_stmt 1      ## /Users/ericlei/Documents/ImageProcessing/sources/lodepng.c:1281:1
	movl	-4(%rbp), %eax
	addq	$80, %rsp
	popq	%rbp
	retq
Ltmp244:
Lfunc_end13:
	.cfi_endproc

	.globl	_lodepng_deflate
	.p2align	4, 0x90
_lodepng_deflate:                       ## @lodepng_deflate
Lfunc_begin14:
	.loc	1 2061 0                ## /Users/ericlei/Documents/ImageProcessing/sources/lodepng.c:2061:0
	.cfi_startproc
## BB#0:
	pushq	%rbp
Ltmp245:
	.cfi_def_cfa_offset 16
Ltmp246:
	.cfi_offset %rbp, -16
	movq	%rsp, %rbp
Ltmp247:
	.cfi_def_cfa_register %rbp
	subq	$80, %rsp
	leaq	-72(%rbp), %rax
	movq	%rdi, -8(%rbp)
	movq	%rsi, -16(%rbp)
	movq	%rdx, -24(%rbp)
	movq	%rcx, -32(%rbp)
	movq	%r8, -40(%rbp)
Ltmp248:
	##DEBUG_VALUE: lodepng_deflate:v <- %RAX
	.loc	1 2064 29 prologue_end  ## /Users/ericlei/Documents/ImageProcessing/sources/lodepng.c:2064:29
	movq	-8(%rbp), %rcx
	.loc	1 2064 28 is_stmt 0     ## /Users/ericlei/Documents/ImageProcessing/sources/lodepng.c:2064:28
	movq	(%rcx), %rsi
	.loc	1 2064 35               ## /Users/ericlei/Documents/ImageProcessing/sources/lodepng.c:2064:35
	movq	-16(%rbp), %rcx
	.loc	1 2064 34               ## /Users/ericlei/Documents/ImageProcessing/sources/lodepng.c:2064:34
	movq	(%rcx), %rdx
	.loc	1 2064 3                ## /Users/ericlei/Documents/ImageProcessing/sources/lodepng.c:2064:3
	movq	%rax, %rdi
	callq	_ucvector_init_buffer
Ltmp249:
	leaq	-72(%rbp), %rdi
	.loc	1 2065 32 is_stmt 1     ## /Users/ericlei/Documents/ImageProcessing/sources/lodepng.c:2065:32
	movq	-24(%rbp), %rsi
	.loc	1 2065 36 is_stmt 0     ## /Users/ericlei/Documents/ImageProcessing/sources/lodepng.c:2065:36
	movq	-32(%rbp), %rdx
	.loc	1 2065 44               ## /Users/ericlei/Documents/ImageProcessing/sources/lodepng.c:2065:44
	movq	-40(%rbp), %rcx
	.loc	1 2065 11               ## /Users/ericlei/Documents/ImageProcessing/sources/lodepng.c:2065:11
	callq	_lodepng_deflatev
	.loc	1 2065 9                ## /Users/ericlei/Documents/ImageProcessing/sources/lodepng.c:2065:9
	movl	%eax, -44(%rbp)
	.loc	1 2066 12 is_stmt 1     ## /Users/ericlei/Documents/ImageProcessing/sources/lodepng.c:2066:12
	movq	-72(%rbp), %rcx
	.loc	1 2066 4 is_stmt 0      ## /Users/ericlei/Documents/ImageProcessing/sources/lodepng.c:2066:4
	movq	-8(%rbp), %rdx
	.loc	1 2066 8                ## /Users/ericlei/Documents/ImageProcessing/sources/lodepng.c:2066:8
	movq	%rcx, (%rdx)
	.loc	1 2067 16 is_stmt 1     ## /Users/ericlei/Documents/ImageProcessing/sources/lodepng.c:2067:16
	movq	-64(%rbp), %rcx
	.loc	1 2067 4 is_stmt 0      ## /Users/ericlei/Documents/ImageProcessing/sources/lodepng.c:2067:4
	movq	-16(%rbp), %rdx
	.loc	1 2067 12               ## /Users/ericlei/Documents/ImageProcessing/sources/lodepng.c:2067:12
	movq	%rcx, (%rdx)
	.loc	1 2068 10 is_stmt 1     ## /Users/ericlei/Documents/ImageProcessing/sources/lodepng.c:2068:10
	movl	-44(%rbp), %eax
	.loc	1 2068 3 is_stmt 0      ## /Users/ericlei/Documents/ImageProcessing/sources/lodepng.c:2068:3
	addq	$80, %rsp
	popq	%rbp
	retq
Ltmp250:
Lfunc_end14:
	.cfi_endproc

	.p2align	4, 0x90
_lodepng_deflatev:                      ## @lodepng_deflatev
Lfunc_begin15:
	.loc	1 2019 0 is_stmt 1      ## /Users/ericlei/Documents/ImageProcessing/sources/lodepng.c:2019:0
	.cfi_startproc
## BB#0:
	pushq	%rbp
Ltmp251:
	.cfi_def_cfa_offset 16
Ltmp252:
	.cfi_offset %rbp, -16
	movq	%rsp, %rbp
Ltmp253:
	.cfi_def_cfa_register %rbp
	subq	$176, %rsp
	movq	%rdi, -16(%rbp)
	movq	%rsi, -24(%rbp)
	movq	%rdx, -32(%rbp)
	movq	%rcx, -40(%rbp)
Ltmp254:
	.loc	1 2020 12 prologue_end  ## /Users/ericlei/Documents/ImageProcessing/sources/lodepng.c:2020:12
	movl	$0, -44(%rbp)
	.loc	1 2022 10               ## /Users/ericlei/Documents/ImageProcessing/sources/lodepng.c:2022:10
	movq	$0, -80(%rbp)
Ltmp255:
	.loc	1 2025 6                ## /Users/ericlei/Documents/ImageProcessing/sources/lodepng.c:2025:6
	movq	-40(%rbp), %rcx
	.loc	1 2025 22 is_stmt 0     ## /Users/ericlei/Documents/ImageProcessing/sources/lodepng.c:2025:22
	cmpl	$2, (%rcx)
Ltmp256:
	.loc	1 2025 6                ## /Users/ericlei/Documents/ImageProcessing/sources/lodepng.c:2025:6
	jbe	LBB15_2
## BB#1:
Ltmp257:
	.loc	1 2025 27 discriminator 1 ## /Users/ericlei/Documents/ImageProcessing/sources/lodepng.c:2025:27
	movl	$61, -4(%rbp)
	jmp	LBB15_31
LBB15_2:
Ltmp258:
	.loc	1 2026 11 is_stmt 1     ## /Users/ericlei/Documents/ImageProcessing/sources/lodepng.c:2026:11
	movq	-40(%rbp), %rax
	.loc	1 2026 27 is_stmt 0     ## /Users/ericlei/Documents/ImageProcessing/sources/lodepng.c:2026:27
	cmpl	$0, (%rax)
Ltmp259:
	.loc	1 2026 11               ## /Users/ericlei/Documents/ImageProcessing/sources/lodepng.c:2026:11
	jne	LBB15_4
## BB#3:
Ltmp260:
	.loc	1 2026 61 discriminator 1 ## /Users/ericlei/Documents/ImageProcessing/sources/lodepng.c:2026:61
	movq	-16(%rbp), %rdi
	.loc	1 2026 66 discriminator 1 ## /Users/ericlei/Documents/ImageProcessing/sources/lodepng.c:2026:66
	movq	-24(%rbp), %rsi
	.loc	1 2026 70 discriminator 1 ## /Users/ericlei/Documents/ImageProcessing/sources/lodepng.c:2026:70
	movq	-32(%rbp), %rdx
	.loc	1 2026 40 discriminator 1 ## /Users/ericlei/Documents/ImageProcessing/sources/lodepng.c:2026:40
	callq	_deflateNoCompression
	.loc	1 2026 33 discriminator 1 ## /Users/ericlei/Documents/ImageProcessing/sources/lodepng.c:2026:33
	movl	%eax, -4(%rbp)
	jmp	LBB15_31
LBB15_4:
Ltmp261:
	.loc	1 2027 11 is_stmt 1     ## /Users/ericlei/Documents/ImageProcessing/sources/lodepng.c:2027:11
	movq	-40(%rbp), %rax
	.loc	1 2027 27 is_stmt 0     ## /Users/ericlei/Documents/ImageProcessing/sources/lodepng.c:2027:27
	cmpl	$1, (%rax)
Ltmp262:
	.loc	1 2027 11               ## /Users/ericlei/Documents/ImageProcessing/sources/lodepng.c:2027:11
	jne	LBB15_6
## BB#5:
Ltmp263:
	.loc	1 2027 45 discriminator 1 ## /Users/ericlei/Documents/ImageProcessing/sources/lodepng.c:2027:45
	movq	-32(%rbp), %rax
	.loc	1 2027 43 discriminator 1 ## /Users/ericlei/Documents/ImageProcessing/sources/lodepng.c:2027:43
	movq	%rax, -64(%rbp)
	.loc	1 2027 33 discriminator 1 ## /Users/ericlei/Documents/ImageProcessing/sources/lodepng.c:2027:33
	jmp	LBB15_11
LBB15_6:
Ltmp264:
	.loc	1 2031 17 is_stmt 1     ## /Users/ericlei/Documents/ImageProcessing/sources/lodepng.c:2031:17
	movq	-32(%rbp), %rax
	.loc	1 2031 24 is_stmt 0     ## /Users/ericlei/Documents/ImageProcessing/sources/lodepng.c:2031:24
	shrq	$3, %rax
	.loc	1 2031 28               ## /Users/ericlei/Documents/ImageProcessing/sources/lodepng.c:2031:28
	addq	$8, %rax
	.loc	1 2031 15               ## /Users/ericlei/Documents/ImageProcessing/sources/lodepng.c:2031:15
	movq	%rax, -64(%rbp)
Ltmp265:
	.loc	1 2032 18 is_stmt 1     ## /Users/ericlei/Documents/ImageProcessing/sources/lodepng.c:2032:18
	cmpq	$65536, -64(%rbp)       ## imm = 0x10000
Ltmp266:
	.loc	1 2032 8 is_stmt 0      ## /Users/ericlei/Documents/ImageProcessing/sources/lodepng.c:2032:8
	jae	LBB15_8
## BB#7:
Ltmp267:
	.loc	1 2032 37 discriminator 1 ## /Users/ericlei/Documents/ImageProcessing/sources/lodepng.c:2032:37
	movq	$65536, -64(%rbp)       ## imm = 0x10000
Ltmp268:
LBB15_8:
	.loc	1 2033 18 is_stmt 1     ## /Users/ericlei/Documents/ImageProcessing/sources/lodepng.c:2033:18
	cmpq	$262144, -64(%rbp)      ## imm = 0x40000
Ltmp269:
	.loc	1 2033 8 is_stmt 0      ## /Users/ericlei/Documents/ImageProcessing/sources/lodepng.c:2033:8
	jbe	LBB15_10
## BB#9:
Ltmp270:
	.loc	1 2033 38 discriminator 1 ## /Users/ericlei/Documents/ImageProcessing/sources/lodepng.c:2033:38
	movq	$262144, -64(%rbp)      ## imm = 0x40000
Ltmp271:
LBB15_10:
	jmp	LBB15_11
LBB15_11:
	jmp	LBB15_12
LBB15_12:
	jmp	LBB15_13
LBB15_13:
	.loc	1 2036 23 is_stmt 1     ## /Users/ericlei/Documents/ImageProcessing/sources/lodepng.c:2036:23
	movq	-32(%rbp), %rax
	.loc	1 2036 30 is_stmt 0     ## /Users/ericlei/Documents/ImageProcessing/sources/lodepng.c:2036:30
	addq	-64(%rbp), %rax
	.loc	1 2036 42               ## /Users/ericlei/Documents/ImageProcessing/sources/lodepng.c:2036:42
	subq	$1, %rax
	.loc	1 2036 47               ## /Users/ericlei/Documents/ImageProcessing/sources/lodepng.c:2036:47
	xorl	%ecx, %ecx
	movl	%ecx, %edx
	divq	-64(%rbp)
	.loc	1 2036 20               ## /Users/ericlei/Documents/ImageProcessing/sources/lodepng.c:2036:20
	movq	%rax, -72(%rbp)
Ltmp272:
	.loc	1 2037 23 is_stmt 1     ## /Users/ericlei/Documents/ImageProcessing/sources/lodepng.c:2037:23
	cmpq	$0, -72(%rbp)
Ltmp273:
	.loc	1 2037 6 is_stmt 0      ## /Users/ericlei/Documents/ImageProcessing/sources/lodepng.c:2037:6
	jne	LBB15_15
## BB#14:
Ltmp274:
	.loc	1 2037 46 discriminator 1 ## /Users/ericlei/Documents/ImageProcessing/sources/lodepng.c:2037:46
	movq	$1, -72(%rbp)
Ltmp275:
LBB15_15:
	leaq	-128(%rbp), %rdi
	.loc	1 2039 28 is_stmt 1     ## /Users/ericlei/Documents/ImageProcessing/sources/lodepng.c:2039:28
	movq	-40(%rbp), %rax
	.loc	1 2039 38 is_stmt 0     ## /Users/ericlei/Documents/ImageProcessing/sources/lodepng.c:2039:38
	movl	8(%rax), %esi
	.loc	1 2039 11               ## /Users/ericlei/Documents/ImageProcessing/sources/lodepng.c:2039:11
	callq	_hash_init
	.loc	1 2039 9                ## /Users/ericlei/Documents/ImageProcessing/sources/lodepng.c:2039:9
	movl	%eax, -44(%rbp)
Ltmp276:
	.loc	1 2040 6 is_stmt 1      ## /Users/ericlei/Documents/ImageProcessing/sources/lodepng.c:2040:6
	cmpl	$0, -44(%rbp)
Ltmp277:
	.loc	1 2040 6 is_stmt 0      ## /Users/ericlei/Documents/ImageProcessing/sources/lodepng.c:2040:6
	je	LBB15_17
## BB#16:
Ltmp278:
	.loc	1 2040 20 discriminator 1 ## /Users/ericlei/Documents/ImageProcessing/sources/lodepng.c:2040:20
	movl	-44(%rbp), %eax
	.loc	1 2040 13 discriminator 1 ## /Users/ericlei/Documents/ImageProcessing/sources/lodepng.c:2040:13
	movl	%eax, -4(%rbp)
	jmp	LBB15_31
Ltmp279:
LBB15_17:
	.loc	1 2042 9 is_stmt 1      ## /Users/ericlei/Documents/ImageProcessing/sources/lodepng.c:2042:9
	movq	$0, -56(%rbp)
LBB15_18:                               ## =>This Inner Loop Header: Depth=1
	xorl	%eax, %eax
	movb	%al, %cl
Ltmp280:
	.loc	1 2042 14 is_stmt 0 discriminator 1 ## /Users/ericlei/Documents/ImageProcessing/sources/lodepng.c:2042:14
	movq	-56(%rbp), %rdx
	.loc	1 2042 16 discriminator 1 ## /Users/ericlei/Documents/ImageProcessing/sources/lodepng.c:2042:16
	cmpq	-72(%rbp), %rdx
	.loc	1 2042 36 discriminator 1 ## /Users/ericlei/Documents/ImageProcessing/sources/lodepng.c:2042:36
	movb	%cl, -153(%rbp)         ## 1-byte Spill
	je	LBB15_20
## BB#19:                               ##   in Loop: Header=BB15_18 Depth=1
	.loc	1 2042 39 discriminator 2 ## /Users/ericlei/Documents/ImageProcessing/sources/lodepng.c:2042:39
	cmpl	$0, -44(%rbp)
	setne	%al
	xorb	$-1, %al
	movb	%al, -153(%rbp)         ## 1-byte Spill
Ltmp281:
LBB15_20:                               ##   in Loop: Header=BB15_18 Depth=1
	movb	-153(%rbp), %al         ## 1-byte Reload
	.loc	1 2042 3 discriminator 3 ## /Users/ericlei/Documents/ImageProcessing/sources/lodepng.c:2042:3
	testb	$1, %al
	jne	LBB15_21
	jmp	LBB15_30
LBB15_21:                               ##   in Loop: Header=BB15_18 Depth=1
Ltmp282:
	.loc	1 2044 23 is_stmt 1     ## /Users/ericlei/Documents/ImageProcessing/sources/lodepng.c:2044:23
	movq	-56(%rbp), %rax
	.loc	1 2044 28 is_stmt 0     ## /Users/ericlei/Documents/ImageProcessing/sources/lodepng.c:2044:28
	movq	-72(%rbp), %rcx
	.loc	1 2044 45               ## /Users/ericlei/Documents/ImageProcessing/sources/lodepng.c:2044:45
	subq	$1, %rcx
	.loc	1 2044 25               ## /Users/ericlei/Documents/ImageProcessing/sources/lodepng.c:2044:25
	cmpq	%rcx, %rax
	sete	%dl
	andb	$1, %dl
	movzbl	%dl, %esi
	.loc	1 2044 14               ## /Users/ericlei/Documents/ImageProcessing/sources/lodepng.c:2044:14
	movl	%esi, -132(%rbp)
	.loc	1 2045 20 is_stmt 1     ## /Users/ericlei/Documents/ImageProcessing/sources/lodepng.c:2045:20
	movq	-56(%rbp), %rax
	.loc	1 2045 22 is_stmt 0     ## /Users/ericlei/Documents/ImageProcessing/sources/lodepng.c:2045:22
	imulq	-64(%rbp), %rax
	.loc	1 2045 12               ## /Users/ericlei/Documents/ImageProcessing/sources/lodepng.c:2045:12
	movq	%rax, -144(%rbp)
	.loc	1 2046 18 is_stmt 1     ## /Users/ericlei/Documents/ImageProcessing/sources/lodepng.c:2046:18
	movq	-144(%rbp), %rax
	.loc	1 2046 24 is_stmt 0     ## /Users/ericlei/Documents/ImageProcessing/sources/lodepng.c:2046:24
	addq	-64(%rbp), %rax
	.loc	1 2046 12               ## /Users/ericlei/Documents/ImageProcessing/sources/lodepng.c:2046:12
	movq	%rax, -152(%rbp)
Ltmp283:
	.loc	1 2047 8 is_stmt 1      ## /Users/ericlei/Documents/ImageProcessing/sources/lodepng.c:2047:8
	movq	-152(%rbp), %rax
	.loc	1 2047 12 is_stmt 0     ## /Users/ericlei/Documents/ImageProcessing/sources/lodepng.c:2047:12
	cmpq	-32(%rbp), %rax
Ltmp284:
	.loc	1 2047 8                ## /Users/ericlei/Documents/ImageProcessing/sources/lodepng.c:2047:8
	jbe	LBB15_23
## BB#22:                               ##   in Loop: Header=BB15_18 Depth=1
Ltmp285:
	.loc	1 2047 28 discriminator 1 ## /Users/ericlei/Documents/ImageProcessing/sources/lodepng.c:2047:28
	movq	-32(%rbp), %rax
	.loc	1 2047 26 discriminator 1 ## /Users/ericlei/Documents/ImageProcessing/sources/lodepng.c:2047:26
	movq	%rax, -152(%rbp)
Ltmp286:
LBB15_23:                               ##   in Loop: Header=BB15_18 Depth=1
	.loc	1 2049 8 is_stmt 1      ## /Users/ericlei/Documents/ImageProcessing/sources/lodepng.c:2049:8
	movq	-40(%rbp), %rax
	.loc	1 2049 24 is_stmt 0     ## /Users/ericlei/Documents/ImageProcessing/sources/lodepng.c:2049:24
	cmpl	$1, (%rax)
Ltmp287:
	.loc	1 2049 8                ## /Users/ericlei/Documents/ImageProcessing/sources/lodepng.c:2049:8
	jne	LBB15_25
## BB#24:                               ##   in Loop: Header=BB15_18 Depth=1
	leaq	-80(%rbp), %rsi
	leaq	-128(%rbp), %rdx
Ltmp288:
	.loc	1 2049 51 discriminator 1 ## /Users/ericlei/Documents/ImageProcessing/sources/lodepng.c:2049:51
	movq	-16(%rbp), %rdi
	.loc	1 2049 68 discriminator 1 ## /Users/ericlei/Documents/ImageProcessing/sources/lodepng.c:2049:68
	movq	-24(%rbp), %rcx
	.loc	1 2049 72 discriminator 1 ## /Users/ericlei/Documents/ImageProcessing/sources/lodepng.c:2049:72
	movq	-144(%rbp), %r8
	.loc	1 2049 79 discriminator 1 ## /Users/ericlei/Documents/ImageProcessing/sources/lodepng.c:2049:79
	movq	-152(%rbp), %r9
	.loc	1 2049 84 discriminator 1 ## /Users/ericlei/Documents/ImageProcessing/sources/lodepng.c:2049:84
	movq	-40(%rbp), %rax
	.loc	1 2049 94 discriminator 1 ## /Users/ericlei/Documents/ImageProcessing/sources/lodepng.c:2049:94
	movl	-132(%rbp), %r10d
	.loc	1 2049 38 discriminator 1 ## /Users/ericlei/Documents/ImageProcessing/sources/lodepng.c:2049:38
	movq	%rax, (%rsp)
	movl	%r10d, 8(%rsp)
	callq	_deflateFixed
	.loc	1 2049 36 discriminator 1 ## /Users/ericlei/Documents/ImageProcessing/sources/lodepng.c:2049:36
	movl	%eax, -44(%rbp)
	.loc	1 2049 30 discriminator 1 ## /Users/ericlei/Documents/ImageProcessing/sources/lodepng.c:2049:30
	jmp	LBB15_28
LBB15_25:                               ##   in Loop: Header=BB15_18 Depth=1
Ltmp289:
	.loc	1 2050 13 is_stmt 1     ## /Users/ericlei/Documents/ImageProcessing/sources/lodepng.c:2050:13
	movq	-40(%rbp), %rax
	.loc	1 2050 29 is_stmt 0     ## /Users/ericlei/Documents/ImageProcessing/sources/lodepng.c:2050:29
	cmpl	$2, (%rax)
Ltmp290:
	.loc	1 2050 13               ## /Users/ericlei/Documents/ImageProcessing/sources/lodepng.c:2050:13
	jne	LBB15_27
## BB#26:                               ##   in Loop: Header=BB15_18 Depth=1
	leaq	-80(%rbp), %rsi
	leaq	-128(%rbp), %rdx
Ltmp291:
	.loc	1 2050 58 discriminator 1 ## /Users/ericlei/Documents/ImageProcessing/sources/lodepng.c:2050:58
	movq	-16(%rbp), %rdi
	.loc	1 2050 75 discriminator 1 ## /Users/ericlei/Documents/ImageProcessing/sources/lodepng.c:2050:75
	movq	-24(%rbp), %rcx
	.loc	1 2050 79 discriminator 1 ## /Users/ericlei/Documents/ImageProcessing/sources/lodepng.c:2050:79
	movq	-144(%rbp), %r8
	.loc	1 2050 86 discriminator 1 ## /Users/ericlei/Documents/ImageProcessing/sources/lodepng.c:2050:86
	movq	-152(%rbp), %r9
	.loc	1 2050 91 discriminator 1 ## /Users/ericlei/Documents/ImageProcessing/sources/lodepng.c:2050:91
	movq	-40(%rbp), %rax
	.loc	1 2050 101 discriminator 1 ## /Users/ericlei/Documents/ImageProcessing/sources/lodepng.c:2050:101
	movl	-132(%rbp), %r10d
	.loc	1 2050 43 discriminator 1 ## /Users/ericlei/Documents/ImageProcessing/sources/lodepng.c:2050:43
	movq	%rax, (%rsp)
	movl	%r10d, 8(%rsp)
	callq	_deflateDynamic
	.loc	1 2050 41 discriminator 1 ## /Users/ericlei/Documents/ImageProcessing/sources/lodepng.c:2050:41
	movl	%eax, -44(%rbp)
Ltmp292:
LBB15_27:                               ##   in Loop: Header=BB15_18 Depth=1
	jmp	LBB15_28
LBB15_28:                               ##   in Loop: Header=BB15_18 Depth=1
	.loc	1 2051 3 is_stmt 1      ## /Users/ericlei/Documents/ImageProcessing/sources/lodepng.c:2051:3
	jmp	LBB15_29
Ltmp293:
LBB15_29:                               ##   in Loop: Header=BB15_18 Depth=1
	.loc	1 2042 47 discriminator 4 ## /Users/ericlei/Documents/ImageProcessing/sources/lodepng.c:2042:47
	movq	-56(%rbp), %rax
	addq	$1, %rax
	movq	%rax, -56(%rbp)
	.loc	1 2042 3 is_stmt 0 discriminator 4 ## /Users/ericlei/Documents/ImageProcessing/sources/lodepng.c:2042:3
	jmp	LBB15_18
Ltmp294:
LBB15_30:
	leaq	-128(%rbp), %rdi
	.loc	1 2053 3 is_stmt 1      ## /Users/ericlei/Documents/ImageProcessing/sources/lodepng.c:2053:3
	callq	_hash_cleanup
	.loc	1 2055 10               ## /Users/ericlei/Documents/ImageProcessing/sources/lodepng.c:2055:10
	movl	-44(%rbp), %eax
	.loc	1 2055 3 is_stmt 0      ## /Users/ericlei/Documents/ImageProcessing/sources/lodepng.c:2055:3
	movl	%eax, -4(%rbp)
LBB15_31:
	.loc	1 2056 1 is_stmt 1      ## /Users/ericlei/Documents/ImageProcessing/sources/lodepng.c:2056:1
	movl	-4(%rbp), %eax
	addq	$176, %rsp
	popq	%rbp
	retq
Ltmp295:
Lfunc_end15:
	.cfi_endproc

	.globl	_lodepng_zlib_decompress
	.p2align	4, 0x90
_lodepng_zlib_decompress:               ## @lodepng_zlib_decompress
Lfunc_begin16:
	.loc	1 2128 0                ## /Users/ericlei/Documents/ImageProcessing/sources/lodepng.c:2128:0
	.cfi_startproc
## BB#0:
	pushq	%rbp
Ltmp296:
	.cfi_def_cfa_offset 16
Ltmp297:
	.cfi_offset %rbp, -16
	movq	%rsp, %rbp
Ltmp298:
	.cfi_def_cfa_register %rbp
	subq	$80, %rsp
	movq	%rdi, -16(%rbp)
	movq	%rsi, -24(%rbp)
	movq	%rdx, -32(%rbp)
	movq	%rcx, -40(%rbp)
	movq	%r8, -48(%rbp)
Ltmp299:
	.loc	1 2129 12 prologue_end  ## /Users/ericlei/Documents/ImageProcessing/sources/lodepng.c:2129:12
	movl	$0, -52(%rbp)
Ltmp300:
	.loc	1 2132 13               ## /Users/ericlei/Documents/ImageProcessing/sources/lodepng.c:2132:13
	cmpq	$2, -40(%rbp)
Ltmp301:
	.loc	1 2132 6 is_stmt 0      ## /Users/ericlei/Documents/ImageProcessing/sources/lodepng.c:2132:6
	jae	LBB16_2
## BB#1:
Ltmp302:
	.loc	1 2132 18 discriminator 1 ## /Users/ericlei/Documents/ImageProcessing/sources/lodepng.c:2132:18
	movl	$53, -4(%rbp)
	jmp	LBB16_16
Ltmp303:
LBB16_2:
	movl	$31, %eax
Ltmp304:
	.loc	1 2134 7 is_stmt 1      ## /Users/ericlei/Documents/ImageProcessing/sources/lodepng.c:2134:7
	movq	-32(%rbp), %rcx
	movzbl	(%rcx), %edx
	.loc	1 2134 13 is_stmt 0     ## /Users/ericlei/Documents/ImageProcessing/sources/lodepng.c:2134:13
	shll	$8, %edx
	.loc	1 2134 21               ## /Users/ericlei/Documents/ImageProcessing/sources/lodepng.c:2134:21
	movq	-32(%rbp), %rcx
	movzbl	1(%rcx), %esi
	.loc	1 2134 19               ## /Users/ericlei/Documents/ImageProcessing/sources/lodepng.c:2134:19
	addl	%esi, %edx
	.loc	1 2134 28               ## /Users/ericlei/Documents/ImageProcessing/sources/lodepng.c:2134:28
	movl	%eax, -76(%rbp)         ## 4-byte Spill
	movl	%edx, %eax
	cltd
	movl	-76(%rbp), %esi         ## 4-byte Reload
	idivl	%esi
	.loc	1 2134 33               ## /Users/ericlei/Documents/ImageProcessing/sources/lodepng.c:2134:33
	cmpl	$0, %edx
Ltmp305:
	.loc	1 2134 6                ## /Users/ericlei/Documents/ImageProcessing/sources/lodepng.c:2134:6
	je	LBB16_4
## BB#3:
Ltmp306:
	.loc	1 2137 5 is_stmt 1      ## /Users/ericlei/Documents/ImageProcessing/sources/lodepng.c:2137:5
	movl	$24, -4(%rbp)
	jmp	LBB16_16
Ltmp307:
LBB16_4:
	.loc	1 2140 8                ## /Users/ericlei/Documents/ImageProcessing/sources/lodepng.c:2140:8
	movq	-32(%rbp), %rax
	movzbl	(%rax), %ecx
	.loc	1 2140 14 is_stmt 0     ## /Users/ericlei/Documents/ImageProcessing/sources/lodepng.c:2140:14
	andl	$15, %ecx
	.loc	1 2140 6                ## /Users/ericlei/Documents/ImageProcessing/sources/lodepng.c:2140:6
	movl	%ecx, -56(%rbp)
	.loc	1 2141 12 is_stmt 1     ## /Users/ericlei/Documents/ImageProcessing/sources/lodepng.c:2141:12
	movq	-32(%rbp), %rax
	movzbl	(%rax), %ecx
	.loc	1 2141 18 is_stmt 0     ## /Users/ericlei/Documents/ImageProcessing/sources/lodepng.c:2141:18
	sarl	$4, %ecx
	.loc	1 2141 24               ## /Users/ericlei/Documents/ImageProcessing/sources/lodepng.c:2141:24
	andl	$15, %ecx
	.loc	1 2141 9                ## /Users/ericlei/Documents/ImageProcessing/sources/lodepng.c:2141:9
	movl	%ecx, -60(%rbp)
	.loc	1 2143 12 is_stmt 1     ## /Users/ericlei/Documents/ImageProcessing/sources/lodepng.c:2143:12
	movq	-32(%rbp), %rax
	movzbl	1(%rax), %ecx
	.loc	1 2143 18 is_stmt 0     ## /Users/ericlei/Documents/ImageProcessing/sources/lodepng.c:2143:18
	sarl	$5, %ecx
	.loc	1 2143 24               ## /Users/ericlei/Documents/ImageProcessing/sources/lodepng.c:2143:24
	andl	$1, %ecx
	.loc	1 2143 9                ## /Users/ericlei/Documents/ImageProcessing/sources/lodepng.c:2143:9
	movl	%ecx, -64(%rbp)
Ltmp308:
	.loc	1 2146 9 is_stmt 1      ## /Users/ericlei/Documents/ImageProcessing/sources/lodepng.c:2146:9
	cmpl	$8, -56(%rbp)
	.loc	1 2146 14 is_stmt 0     ## /Users/ericlei/Documents/ImageProcessing/sources/lodepng.c:2146:14
	jne	LBB16_6
## BB#5:
	.loc	1 2146 23 discriminator 1 ## /Users/ericlei/Documents/ImageProcessing/sources/lodepng.c:2146:23
	cmpl	$7, -60(%rbp)
Ltmp309:
	.loc	1 2146 6 discriminator 1 ## /Users/ericlei/Documents/ImageProcessing/sources/lodepng.c:2146:6
	jbe	LBB16_7
LBB16_6:
Ltmp310:
	.loc	1 2149 5 is_stmt 1      ## /Users/ericlei/Documents/ImageProcessing/sources/lodepng.c:2149:5
	movl	$25, -4(%rbp)
	jmp	LBB16_16
Ltmp311:
LBB16_7:
	.loc	1 2151 12               ## /Users/ericlei/Documents/ImageProcessing/sources/lodepng.c:2151:12
	cmpl	$0, -64(%rbp)
Ltmp312:
	.loc	1 2151 6 is_stmt 0      ## /Users/ericlei/Documents/ImageProcessing/sources/lodepng.c:2151:6
	je	LBB16_9
## BB#8:
Ltmp313:
	.loc	1 2155 5 is_stmt 1      ## /Users/ericlei/Documents/ImageProcessing/sources/lodepng.c:2155:5
	movl	$26, -4(%rbp)
	jmp	LBB16_16
Ltmp314:
LBB16_9:
	.loc	1 2158 19               ## /Users/ericlei/Documents/ImageProcessing/sources/lodepng.c:2158:19
	movq	-16(%rbp), %rdi
	.loc	1 2158 24 is_stmt 0     ## /Users/ericlei/Documents/ImageProcessing/sources/lodepng.c:2158:24
	movq	-24(%rbp), %rsi
	.loc	1 2158 33               ## /Users/ericlei/Documents/ImageProcessing/sources/lodepng.c:2158:33
	movq	-32(%rbp), %rax
	.loc	1 2158 36               ## /Users/ericlei/Documents/ImageProcessing/sources/lodepng.c:2158:36
	addq	$2, %rax
	.loc	1 2158 41               ## /Users/ericlei/Documents/ImageProcessing/sources/lodepng.c:2158:41
	movq	-40(%rbp), %rcx
	.loc	1 2158 48               ## /Users/ericlei/Documents/ImageProcessing/sources/lodepng.c:2158:48
	subq	$2, %rcx
	.loc	1 2158 53               ## /Users/ericlei/Documents/ImageProcessing/sources/lodepng.c:2158:53
	movq	-48(%rbp), %r8
	.loc	1 2158 11               ## /Users/ericlei/Documents/ImageProcessing/sources/lodepng.c:2158:11
	movq	%rax, %rdx
	callq	_inflate
	.loc	1 2158 9                ## /Users/ericlei/Documents/ImageProcessing/sources/lodepng.c:2158:9
	movl	%eax, -52(%rbp)
Ltmp315:
	.loc	1 2159 6 is_stmt 1      ## /Users/ericlei/Documents/ImageProcessing/sources/lodepng.c:2159:6
	cmpl	$0, -52(%rbp)
Ltmp316:
	.loc	1 2159 6 is_stmt 0      ## /Users/ericlei/Documents/ImageProcessing/sources/lodepng.c:2159:6
	je	LBB16_11
## BB#10:
Ltmp317:
	.loc	1 2159 20 discriminator 1 ## /Users/ericlei/Documents/ImageProcessing/sources/lodepng.c:2159:20
	movl	-52(%rbp), %eax
	.loc	1 2159 13 discriminator 1 ## /Users/ericlei/Documents/ImageProcessing/sources/lodepng.c:2159:13
	movl	%eax, -4(%rbp)
	jmp	LBB16_16
Ltmp318:
LBB16_11:
	.loc	1 2161 7 is_stmt 1      ## /Users/ericlei/Documents/ImageProcessing/sources/lodepng.c:2161:7
	movq	-48(%rbp), %rax
	cmpl	$0, (%rax)
Ltmp319:
	.loc	1 2161 6 is_stmt 0      ## /Users/ericlei/Documents/ImageProcessing/sources/lodepng.c:2161:6
	jne	LBB16_15
## BB#12:
Ltmp320:
	.loc	1 2163 49 is_stmt 1     ## /Users/ericlei/Documents/ImageProcessing/sources/lodepng.c:2163:49
	movq	-40(%rbp), %rax
	.loc	1 2163 56 is_stmt 0     ## /Users/ericlei/Documents/ImageProcessing/sources/lodepng.c:2163:56
	subq	$4, %rax
	.loc	1 2163 46               ## /Users/ericlei/Documents/ImageProcessing/sources/lodepng.c:2163:46
	addq	-32(%rbp), %rax
	.loc	1 2163 24               ## /Users/ericlei/Documents/ImageProcessing/sources/lodepng.c:2163:24
	movq	%rax, %rdi
	callq	_lodepng_read32bitInt
	.loc	1 2163 14               ## /Users/ericlei/Documents/ImageProcessing/sources/lodepng.c:2163:14
	movl	%eax, -68(%rbp)
	.loc	1 2164 34 is_stmt 1     ## /Users/ericlei/Documents/ImageProcessing/sources/lodepng.c:2164:34
	movq	-16(%rbp), %rdi
	.loc	1 2164 33 is_stmt 0     ## /Users/ericlei/Documents/ImageProcessing/sources/lodepng.c:2164:33
	movq	(%rdi), %rdi
	.loc	1 2164 51               ## /Users/ericlei/Documents/ImageProcessing/sources/lodepng.c:2164:51
	movq	-24(%rbp), %rcx
	.loc	1 2164 50               ## /Users/ericlei/Documents/ImageProcessing/sources/lodepng.c:2164:50
	movq	(%rcx), %rcx
	.loc	1 2164 39               ## /Users/ericlei/Documents/ImageProcessing/sources/lodepng.c:2164:39
	movl	%ecx, %eax
	.loc	1 2164 25               ## /Users/ericlei/Documents/ImageProcessing/sources/lodepng.c:2164:25
	movl	%eax, %esi
	callq	_adler32
	.loc	1 2164 14               ## /Users/ericlei/Documents/ImageProcessing/sources/lodepng.c:2164:14
	movl	%eax, -72(%rbp)
Ltmp321:
	.loc	1 2165 8 is_stmt 1      ## /Users/ericlei/Documents/ImageProcessing/sources/lodepng.c:2165:8
	movl	-72(%rbp), %eax
	.loc	1 2165 17 is_stmt 0     ## /Users/ericlei/Documents/ImageProcessing/sources/lodepng.c:2165:17
	cmpl	-68(%rbp), %eax
Ltmp322:
	.loc	1 2165 8                ## /Users/ericlei/Documents/ImageProcessing/sources/lodepng.c:2165:8
	je	LBB16_14
## BB#13:
Ltmp323:
	.loc	1 2165 29 discriminator 1 ## /Users/ericlei/Documents/ImageProcessing/sources/lodepng.c:2165:29
	movl	$58, -4(%rbp)
	jmp	LBB16_16
Ltmp324:
LBB16_14:
	.loc	1 2166 3 is_stmt 1      ## /Users/ericlei/Documents/ImageProcessing/sources/lodepng.c:2166:3
	jmp	LBB16_15
Ltmp325:
LBB16_15:
	.loc	1 2168 3                ## /Users/ericlei/Documents/ImageProcessing/sources/lodepng.c:2168:3
	movl	$0, -4(%rbp)
LBB16_16:
	.loc	1 2169 1                ## /Users/ericlei/Documents/ImageProcessing/sources/lodepng.c:2169:1
	movl	-4(%rbp), %eax
	addq	$80, %rsp
	popq	%rbp
	retq
Ltmp326:
Lfunc_end16:
	.cfi_endproc

	.p2align	4, 0x90
_inflate:                               ## @inflate
Lfunc_begin17:
	.loc	1 1299 0                ## /Users/ericlei/Documents/ImageProcessing/sources/lodepng.c:1299:0
	.cfi_startproc
## BB#0:
	pushq	%rbp
Ltmp327:
	.cfi_def_cfa_offset 16
Ltmp328:
	.cfi_offset %rbp, -16
	movq	%rsp, %rbp
Ltmp329:
	.cfi_def_cfa_register %rbp
	subq	$48, %rsp
	movq	%rdi, -16(%rbp)
	movq	%rsi, -24(%rbp)
	movq	%rdx, -32(%rbp)
	movq	%rcx, -40(%rbp)
	movq	%r8, -48(%rbp)
Ltmp330:
	.loc	1 1300 6 prologue_end   ## /Users/ericlei/Documents/ImageProcessing/sources/lodepng.c:1300:6
	movq	-48(%rbp), %rcx
	cmpq	$0, 16(%rcx)
Ltmp331:
	.loc	1 1300 6 is_stmt 0      ## /Users/ericlei/Documents/ImageProcessing/sources/lodepng.c:1300:6
	je	LBB17_2
## BB#1:
Ltmp332:
	.loc	1 1302 12 is_stmt 1     ## /Users/ericlei/Documents/ImageProcessing/sources/lodepng.c:1302:12
	movq	-48(%rbp), %rax
	.loc	1 1302 22 is_stmt 0     ## /Users/ericlei/Documents/ImageProcessing/sources/lodepng.c:1302:22
	movq	16(%rax), %rax
	.loc	1 1302 37               ## /Users/ericlei/Documents/ImageProcessing/sources/lodepng.c:1302:37
	movq	-16(%rbp), %rdi
	.loc	1 1302 42               ## /Users/ericlei/Documents/ImageProcessing/sources/lodepng.c:1302:42
	movq	-24(%rbp), %rsi
	.loc	1 1302 51               ## /Users/ericlei/Documents/ImageProcessing/sources/lodepng.c:1302:51
	movq	-32(%rbp), %rdx
	.loc	1 1302 55               ## /Users/ericlei/Documents/ImageProcessing/sources/lodepng.c:1302:55
	movq	-40(%rbp), %rcx
	.loc	1 1302 63               ## /Users/ericlei/Documents/ImageProcessing/sources/lodepng.c:1302:63
	movq	-48(%rbp), %r8
	.loc	1 1302 12               ## /Users/ericlei/Documents/ImageProcessing/sources/lodepng.c:1302:12
	callq	*%rax
	.loc	1 1302 5                ## /Users/ericlei/Documents/ImageProcessing/sources/lodepng.c:1302:5
	movl	%eax, -4(%rbp)
	jmp	LBB17_3
Ltmp333:
LBB17_2:
	.loc	1 1306 28 is_stmt 1     ## /Users/ericlei/Documents/ImageProcessing/sources/lodepng.c:1306:28
	movq	-16(%rbp), %rdi
	.loc	1 1306 33 is_stmt 0     ## /Users/ericlei/Documents/ImageProcessing/sources/lodepng.c:1306:33
	movq	-24(%rbp), %rsi
	.loc	1 1306 42               ## /Users/ericlei/Documents/ImageProcessing/sources/lodepng.c:1306:42
	movq	-32(%rbp), %rdx
	.loc	1 1306 46               ## /Users/ericlei/Documents/ImageProcessing/sources/lodepng.c:1306:46
	movq	-40(%rbp), %rcx
	.loc	1 1306 54               ## /Users/ericlei/Documents/ImageProcessing/sources/lodepng.c:1306:54
	movq	-48(%rbp), %r8
	.loc	1 1306 12               ## /Users/ericlei/Documents/ImageProcessing/sources/lodepng.c:1306:12
	callq	_lodepng_inflate
	.loc	1 1306 5                ## /Users/ericlei/Documents/ImageProcessing/sources/lodepng.c:1306:5
	movl	%eax, -4(%rbp)
Ltmp334:
LBB17_3:
	.loc	1 1308 1 is_stmt 1      ## /Users/ericlei/Documents/ImageProcessing/sources/lodepng.c:1308:1
	movl	-4(%rbp), %eax
	addq	$48, %rsp
	popq	%rbp
	retq
Ltmp335:
Lfunc_end17:
	.cfi_endproc

	.p2align	4, 0x90
_adler32:                               ## @adler32
Lfunc_begin18:
	.loc	1 2116 0                ## /Users/ericlei/Documents/ImageProcessing/sources/lodepng.c:2116:0
	.cfi_startproc
## BB#0:
	pushq	%rbp
Ltmp336:
	.cfi_def_cfa_offset 16
Ltmp337:
	.cfi_offset %rbp, -16
	movq	%rsp, %rbp
Ltmp338:
	.cfi_def_cfa_register %rbp
	subq	$16, %rsp
	movl	$1, %eax
	movq	%rdi, -8(%rbp)
	movl	%esi, -12(%rbp)
Ltmp339:
	.loc	1 2117 29 prologue_end  ## /Users/ericlei/Documents/ImageProcessing/sources/lodepng.c:2117:29
	movq	-8(%rbp), %rsi
	.loc	1 2117 35 is_stmt 0     ## /Users/ericlei/Documents/ImageProcessing/sources/lodepng.c:2117:35
	movl	-12(%rbp), %edx
	.loc	1 2117 10               ## /Users/ericlei/Documents/ImageProcessing/sources/lodepng.c:2117:10
	movl	%eax, %edi
	callq	_update_adler32
	.loc	1 2117 3                ## /Users/ericlei/Documents/ImageProcessing/sources/lodepng.c:2117:3
	addq	$16, %rsp
	popq	%rbp
	retq
Ltmp340:
Lfunc_end18:
	.cfi_endproc

	.globl	_lodepng_zlib_compress
	.p2align	4, 0x90
_lodepng_zlib_compress:                 ## @lodepng_zlib_compress
Lfunc_begin19:
	.loc	1 2190 0 is_stmt 1      ## /Users/ericlei/Documents/ImageProcessing/sources/lodepng.c:2190:0
	.cfi_startproc
## BB#0:
	pushq	%rbp
Ltmp341:
	.cfi_def_cfa_offset 16
Ltmp342:
	.cfi_offset %rbp, -16
	movq	%rsp, %rbp
Ltmp343:
	.cfi_def_cfa_register %rbp
	pushq	%rbx
	subq	$152, %rsp
Ltmp344:
	.cfi_offset %rbx, -24
	leaq	-72(%rbp), %rax
	movl	$31, %r9d
	movq	%rdi, -16(%rbp)
	movq	%rsi, -24(%rbp)
	movq	%rdx, -32(%rbp)
	movq	%rcx, -40(%rbp)
	movq	%r8, -48(%rbp)
Ltmp345:
	##DEBUG_VALUE: lodepng_zlib_compress:outv <- %RAX
	.loc	1 2196 18 prologue_end  ## /Users/ericlei/Documents/ImageProcessing/sources/lodepng.c:2196:18
	movq	$0, -96(%rbp)
	.loc	1 2197 10               ## /Users/ericlei/Documents/ImageProcessing/sources/lodepng.c:2197:10
	movq	$0, -104(%rbp)
	.loc	1 2200 12               ## /Users/ericlei/Documents/ImageProcessing/sources/lodepng.c:2200:12
	movl	$120, -108(%rbp)
	.loc	1 2201 12               ## /Users/ericlei/Documents/ImageProcessing/sources/lodepng.c:2201:12
	movl	$0, -112(%rbp)
	.loc	1 2202 12               ## /Users/ericlei/Documents/ImageProcessing/sources/lodepng.c:2202:12
	movl	$0, -116(%rbp)
	.loc	1 2203 27               ## /Users/ericlei/Documents/ImageProcessing/sources/lodepng.c:2203:27
	movl	-108(%rbp), %r10d
	.loc	1 2203 25 is_stmt 0     ## /Users/ericlei/Documents/ImageProcessing/sources/lodepng.c:2203:25
	shll	$8, %r10d
	.loc	1 2203 33               ## /Users/ericlei/Documents/ImageProcessing/sources/lodepng.c:2203:33
	movl	-116(%rbp), %r11d
	.loc	1 2203 39               ## /Users/ericlei/Documents/ImageProcessing/sources/lodepng.c:2203:39
	shll	$5, %r11d
	.loc	1 2203 31               ## /Users/ericlei/Documents/ImageProcessing/sources/lodepng.c:2203:31
	addl	%r11d, %r10d
	.loc	1 2203 46               ## /Users/ericlei/Documents/ImageProcessing/sources/lodepng.c:2203:46
	movl	-112(%rbp), %r11d
	.loc	1 2203 53               ## /Users/ericlei/Documents/ImageProcessing/sources/lodepng.c:2203:53
	shll	$6, %r11d
	.loc	1 2203 44               ## /Users/ericlei/Documents/ImageProcessing/sources/lodepng.c:2203:44
	addl	%r11d, %r10d
	.loc	1 2203 12               ## /Users/ericlei/Documents/ImageProcessing/sources/lodepng.c:2203:12
	movl	%r10d, -120(%rbp)
	.loc	1 2204 26 is_stmt 1     ## /Users/ericlei/Documents/ImageProcessing/sources/lodepng.c:2204:26
	movl	-120(%rbp), %r10d
	.loc	1 2204 33 is_stmt 0     ## /Users/ericlei/Documents/ImageProcessing/sources/lodepng.c:2204:33
	movq	%rax, -136(%rbp)        ## 8-byte Spill
Ltmp346:
	##DEBUG_VALUE: lodepng_zlib_compress:outv <- [%RBP+-136]
	movl	%r10d, %eax
	xorl	%edx, %edx
	divl	%r9d
	.loc	1 2204 24               ## /Users/ericlei/Documents/ImageProcessing/sources/lodepng.c:2204:24
	subl	%edx, %r9d
	.loc	1 2204 12               ## /Users/ericlei/Documents/ImageProcessing/sources/lodepng.c:2204:12
	movl	%r9d, -124(%rbp)
	.loc	1 2205 13 is_stmt 1     ## /Users/ericlei/Documents/ImageProcessing/sources/lodepng.c:2205:13
	movl	-124(%rbp), %edx
	.loc	1 2205 10 is_stmt 0     ## /Users/ericlei/Documents/ImageProcessing/sources/lodepng.c:2205:10
	addl	-120(%rbp), %edx
	movl	%edx, -120(%rbp)
	.loc	1 2208 32 is_stmt 1     ## /Users/ericlei/Documents/ImageProcessing/sources/lodepng.c:2208:32
	movq	-16(%rbp), %rcx
	.loc	1 2208 31 is_stmt 0     ## /Users/ericlei/Documents/ImageProcessing/sources/lodepng.c:2208:31
	movq	(%rcx), %rsi
	.loc	1 2208 38               ## /Users/ericlei/Documents/ImageProcessing/sources/lodepng.c:2208:38
	movq	-24(%rbp), %rcx
	.loc	1 2208 37               ## /Users/ericlei/Documents/ImageProcessing/sources/lodepng.c:2208:37
	movq	(%rcx), %rdx
	.loc	1 2208 3                ## /Users/ericlei/Documents/ImageProcessing/sources/lodepng.c:2208:3
	movq	-136(%rbp), %rdi        ## 8-byte Reload
	callq	_ucvector_init_buffer
	leaq	-72(%rbp), %rdi
	.loc	1 2210 45 is_stmt 1     ## /Users/ericlei/Documents/ImageProcessing/sources/lodepng.c:2210:45
	movl	-120(%rbp), %r9d
	.loc	1 2210 52 is_stmt 0     ## /Users/ericlei/Documents/ImageProcessing/sources/lodepng.c:2210:52
	shrl	$8, %r9d
	.loc	1 2210 29               ## /Users/ericlei/Documents/ImageProcessing/sources/lodepng.c:2210:29
	movb	%r9b, %bl
	.loc	1 2210 3                ## /Users/ericlei/Documents/ImageProcessing/sources/lodepng.c:2210:3
	movzbl	%bl, %esi
	callq	_ucvector_push_back
	leaq	-72(%rbp), %rdi
	.loc	1 2211 45 is_stmt 1     ## /Users/ericlei/Documents/ImageProcessing/sources/lodepng.c:2211:45
	movl	-120(%rbp), %esi
	.loc	1 2211 52 is_stmt 0     ## /Users/ericlei/Documents/ImageProcessing/sources/lodepng.c:2211:52
	andl	$255, %esi
	.loc	1 2211 29               ## /Users/ericlei/Documents/ImageProcessing/sources/lodepng.c:2211:29
	movb	%sil, %bl
	.loc	1 2211 3                ## /Users/ericlei/Documents/ImageProcessing/sources/lodepng.c:2211:3
	movzbl	%bl, %esi
	movl	%eax, -140(%rbp)        ## 4-byte Spill
	callq	_ucvector_push_back
	leaq	-96(%rbp), %rdi
	leaq	-104(%rbp), %rsi
	.loc	1 2213 47 is_stmt 1     ## /Users/ericlei/Documents/ImageProcessing/sources/lodepng.c:2213:47
	movq	-32(%rbp), %rdx
	.loc	1 2213 51 is_stmt 0     ## /Users/ericlei/Documents/ImageProcessing/sources/lodepng.c:2213:51
	movq	-40(%rbp), %rcx
	.loc	1 2213 59               ## /Users/ericlei/Documents/ImageProcessing/sources/lodepng.c:2213:59
	movq	-48(%rbp), %r8
	.loc	1 2213 11               ## /Users/ericlei/Documents/ImageProcessing/sources/lodepng.c:2213:11
	movl	%eax, -144(%rbp)        ## 4-byte Spill
	callq	_deflate
	.loc	1 2213 9                ## /Users/ericlei/Documents/ImageProcessing/sources/lodepng.c:2213:9
	movl	%eax, -84(%rbp)
Ltmp347:
	.loc	1 2215 7 is_stmt 1      ## /Users/ericlei/Documents/ImageProcessing/sources/lodepng.c:2215:7
	cmpl	$0, -84(%rbp)
Ltmp348:
	.loc	1 2215 6 is_stmt 0      ## /Users/ericlei/Documents/ImageProcessing/sources/lodepng.c:2215:6
	jne	LBB19_6
## BB#1:
	##DEBUG_VALUE: lodepng_zlib_compress:outv <- [%RBP+-136]
Ltmp349:
	.loc	1 2217 32 is_stmt 1     ## /Users/ericlei/Documents/ImageProcessing/sources/lodepng.c:2217:32
	movq	-32(%rbp), %rdi
	.loc	1 2217 46 is_stmt 0     ## /Users/ericlei/Documents/ImageProcessing/sources/lodepng.c:2217:46
	movq	-40(%rbp), %rax
	.loc	1 2217 36               ## /Users/ericlei/Documents/ImageProcessing/sources/lodepng.c:2217:36
	movl	%eax, %ecx
	.loc	1 2217 24               ## /Users/ericlei/Documents/ImageProcessing/sources/lodepng.c:2217:24
	movl	%ecx, %esi
	callq	_adler32
	.loc	1 2217 14               ## /Users/ericlei/Documents/ImageProcessing/sources/lodepng.c:2217:14
	movl	%eax, -128(%rbp)
Ltmp350:
	.loc	1 2218 11 is_stmt 1     ## /Users/ericlei/Documents/ImageProcessing/sources/lodepng.c:2218:11
	movq	$0, -80(%rbp)
LBB19_2:                                ## =>This Inner Loop Header: Depth=1
	##DEBUG_VALUE: lodepng_zlib_compress:outv <- [%RBP+-136]
Ltmp351:
	.loc	1 2218 16 is_stmt 0 discriminator 1 ## /Users/ericlei/Documents/ImageProcessing/sources/lodepng.c:2218:16
	movq	-80(%rbp), %rax
	.loc	1 2218 18 discriminator 1 ## /Users/ericlei/Documents/ImageProcessing/sources/lodepng.c:2218:18
	cmpq	-104(%rbp), %rax
Ltmp352:
	.loc	1 2218 5 discriminator 1 ## /Users/ericlei/Documents/ImageProcessing/sources/lodepng.c:2218:5
	je	LBB19_5
## BB#3:                                ##   in Loop: Header=BB19_2 Depth=1
	##DEBUG_VALUE: lodepng_zlib_compress:outv <- [%RBP+-136]
	leaq	-72(%rbp), %rdi
Ltmp353:
	.loc	1 2218 77 discriminator 2 ## /Users/ericlei/Documents/ImageProcessing/sources/lodepng.c:2218:77
	movq	-80(%rbp), %rax
	.loc	1 2218 65 discriminator 2 ## /Users/ericlei/Documents/ImageProcessing/sources/lodepng.c:2218:65
	movq	-96(%rbp), %rcx
	.loc	1 2218 39 discriminator 2 ## /Users/ericlei/Documents/ImageProcessing/sources/lodepng.c:2218:39
	movzbl	(%rcx,%rax), %esi
	callq	_ucvector_push_back
	movl	%eax, -148(%rbp)        ## 4-byte Spill
## BB#4:                                ##   in Loop: Header=BB19_2 Depth=1
	##DEBUG_VALUE: lodepng_zlib_compress:outv <- [%RBP+-136]
	.loc	1 2218 34 discriminator 3 ## /Users/ericlei/Documents/ImageProcessing/sources/lodepng.c:2218:34
	movq	-80(%rbp), %rax
	addq	$1, %rax
	movq	%rax, -80(%rbp)
	.loc	1 2218 5 discriminator 3 ## /Users/ericlei/Documents/ImageProcessing/sources/lodepng.c:2218:5
	jmp	LBB19_2
Ltmp354:
LBB19_5:
	##DEBUG_VALUE: lodepng_zlib_compress:outv <- [%RBP+-136]
	.loc	1 2219 18 is_stmt 1     ## /Users/ericlei/Documents/ImageProcessing/sources/lodepng.c:2219:18
	movq	-96(%rbp), %rdi
	.loc	1 2219 5 is_stmt 0      ## /Users/ericlei/Documents/ImageProcessing/sources/lodepng.c:2219:5
	callq	_lodepng_free
	leaq	-72(%rbp), %rdi
	.loc	1 2220 32 is_stmt 1     ## /Users/ericlei/Documents/ImageProcessing/sources/lodepng.c:2220:32
	movl	-128(%rbp), %esi
	.loc	1 2220 5 is_stmt 0      ## /Users/ericlei/Documents/ImageProcessing/sources/lodepng.c:2220:5
	callq	_lodepng_add32bitInt
Ltmp355:
LBB19_6:
	.loc	1 2223 15 is_stmt 1     ## /Users/ericlei/Documents/ImageProcessing/sources/lodepng.c:2223:15
	movq	-72(%rbp), %rax
	.loc	1 2223 4 is_stmt 0      ## /Users/ericlei/Documents/ImageProcessing/sources/lodepng.c:2223:4
	movq	-16(%rbp), %rcx
	.loc	1 2223 8                ## /Users/ericlei/Documents/ImageProcessing/sources/lodepng.c:2223:8
	movq	%rax, (%rcx)
	.loc	1 2224 19 is_stmt 1     ## /Users/ericlei/Documents/ImageProcessing/sources/lodepng.c:2224:19
	movq	-64(%rbp), %rax
	.loc	1 2224 4 is_stmt 0      ## /Users/ericlei/Documents/ImageProcessing/sources/lodepng.c:2224:4
	movq	-24(%rbp), %rcx
	.loc	1 2224 12               ## /Users/ericlei/Documents/ImageProcessing/sources/lodepng.c:2224:12
	movq	%rax, (%rcx)
	.loc	1 2226 10 is_stmt 1     ## /Users/ericlei/Documents/ImageProcessing/sources/lodepng.c:2226:10
	movl	-84(%rbp), %eax
	.loc	1 2226 3 is_stmt 0      ## /Users/ericlei/Documents/ImageProcessing/sources/lodepng.c:2226:3
	addq	$152, %rsp
	popq	%rbx
	popq	%rbp
	retq
Ltmp356:
Lfunc_end19:
	.cfi_endproc

	.p2align	4, 0x90
_ucvector_push_back:                    ## @ucvector_push_back
Lfunc_begin20:
	.loc	1 266 0 is_stmt 1       ## /Users/ericlei/Documents/ImageProcessing/sources/lodepng.c:266:0
	.cfi_startproc
## BB#0:
	pushq	%rbp
Ltmp357:
	.cfi_def_cfa_offset 16
Ltmp358:
	.cfi_offset %rbp, -16
	movq	%rsp, %rbp
Ltmp359:
	.cfi_def_cfa_register %rbp
	subq	$32, %rsp
	movb	%sil, %al
	movq	%rdi, -16(%rbp)
	movb	%al, -17(%rbp)
Ltmp360:
	.loc	1 267 23 prologue_end   ## /Users/ericlei/Documents/ImageProcessing/sources/lodepng.c:267:23
	movq	-16(%rbp), %rdi
	.loc	1 267 26 is_stmt 0      ## /Users/ericlei/Documents/ImageProcessing/sources/lodepng.c:267:26
	movq	-16(%rbp), %rcx
	.loc	1 267 29                ## /Users/ericlei/Documents/ImageProcessing/sources/lodepng.c:267:29
	movq	8(%rcx), %rcx
	.loc	1 267 34                ## /Users/ericlei/Documents/ImageProcessing/sources/lodepng.c:267:34
	addq	$1, %rcx
	.loc	1 267 7                 ## /Users/ericlei/Documents/ImageProcessing/sources/lodepng.c:267:7
	movq	%rcx, %rsi
	callq	_ucvector_resize
	cmpl	$0, %eax
Ltmp361:
	.loc	1 267 6                 ## /Users/ericlei/Documents/ImageProcessing/sources/lodepng.c:267:6
	jne	LBB20_2
## BB#1:
Ltmp362:
	.loc	1 267 40 discriminator 1 ## /Users/ericlei/Documents/ImageProcessing/sources/lodepng.c:267:40
	movl	$0, -4(%rbp)
	jmp	LBB20_3
Ltmp363:
LBB20_2:
	.loc	1 268 26 is_stmt 1      ## /Users/ericlei/Documents/ImageProcessing/sources/lodepng.c:268:26
	movb	-17(%rbp), %al
	.loc	1 268 11 is_stmt 0      ## /Users/ericlei/Documents/ImageProcessing/sources/lodepng.c:268:11
	movq	-16(%rbp), %rcx
	.loc	1 268 14                ## /Users/ericlei/Documents/ImageProcessing/sources/lodepng.c:268:14
	movq	8(%rcx), %rcx
	.loc	1 268 19                ## /Users/ericlei/Documents/ImageProcessing/sources/lodepng.c:268:19
	subq	$1, %rcx
	.loc	1 268 3                 ## /Users/ericlei/Documents/ImageProcessing/sources/lodepng.c:268:3
	movq	-16(%rbp), %rdx
	.loc	1 268 6                 ## /Users/ericlei/Documents/ImageProcessing/sources/lodepng.c:268:6
	movq	(%rdx), %rdx
	.loc	1 268 24                ## /Users/ericlei/Documents/ImageProcessing/sources/lodepng.c:268:24
	movb	%al, (%rdx,%rcx)
	.loc	1 269 3 is_stmt 1       ## /Users/ericlei/Documents/ImageProcessing/sources/lodepng.c:269:3
	movl	$1, -4(%rbp)
LBB20_3:
	.loc	1 270 1                 ## /Users/ericlei/Documents/ImageProcessing/sources/lodepng.c:270:1
	movl	-4(%rbp), %eax
	addq	$32, %rsp
	popq	%rbp
	retq
Ltmp364:
Lfunc_end20:
	.cfi_endproc

	.p2align	4, 0x90
_deflate:                               ## @deflate
Lfunc_begin21:
	.loc	1 2074 0                ## /Users/ericlei/Documents/ImageProcessing/sources/lodepng.c:2074:0
	.cfi_startproc
## BB#0:
	pushq	%rbp
Ltmp365:
	.cfi_def_cfa_offset 16
Ltmp366:
	.cfi_offset %rbp, -16
	movq	%rsp, %rbp
Ltmp367:
	.cfi_def_cfa_register %rbp
	subq	$48, %rsp
	movq	%rdi, -16(%rbp)
	movq	%rsi, -24(%rbp)
	movq	%rdx, -32(%rbp)
	movq	%rcx, -40(%rbp)
	movq	%r8, -48(%rbp)
Ltmp368:
	.loc	1 2075 6 prologue_end   ## /Users/ericlei/Documents/ImageProcessing/sources/lodepng.c:2075:6
	movq	-48(%rbp), %rcx
	cmpq	$0, 32(%rcx)
Ltmp369:
	.loc	1 2075 6 is_stmt 0      ## /Users/ericlei/Documents/ImageProcessing/sources/lodepng.c:2075:6
	je	LBB21_2
## BB#1:
Ltmp370:
	.loc	1 2077 12 is_stmt 1     ## /Users/ericlei/Documents/ImageProcessing/sources/lodepng.c:2077:12
	movq	-48(%rbp), %rax
	.loc	1 2077 22 is_stmt 0     ## /Users/ericlei/Documents/ImageProcessing/sources/lodepng.c:2077:22
	movq	32(%rax), %rax
	.loc	1 2077 37               ## /Users/ericlei/Documents/ImageProcessing/sources/lodepng.c:2077:37
	movq	-16(%rbp), %rdi
	.loc	1 2077 42               ## /Users/ericlei/Documents/ImageProcessing/sources/lodepng.c:2077:42
	movq	-24(%rbp), %rsi
	.loc	1 2077 51               ## /Users/ericlei/Documents/ImageProcessing/sources/lodepng.c:2077:51
	movq	-32(%rbp), %rdx
	.loc	1 2077 55               ## /Users/ericlei/Documents/ImageProcessing/sources/lodepng.c:2077:55
	movq	-40(%rbp), %rcx
	.loc	1 2077 63               ## /Users/ericlei/Documents/ImageProcessing/sources/lodepng.c:2077:63
	movq	-48(%rbp), %r8
	.loc	1 2077 12               ## /Users/ericlei/Documents/ImageProcessing/sources/lodepng.c:2077:12
	callq	*%rax
	.loc	1 2077 5                ## /Users/ericlei/Documents/ImageProcessing/sources/lodepng.c:2077:5
	movl	%eax, -4(%rbp)
	jmp	LBB21_3
Ltmp371:
LBB21_2:
	.loc	1 2081 28 is_stmt 1     ## /Users/ericlei/Documents/ImageProcessing/sources/lodepng.c:2081:28
	movq	-16(%rbp), %rdi
	.loc	1 2081 33 is_stmt 0     ## /Users/ericlei/Documents/ImageProcessing/sources/lodepng.c:2081:33
	movq	-24(%rbp), %rsi
	.loc	1 2081 42               ## /Users/ericlei/Documents/ImageProcessing/sources/lodepng.c:2081:42
	movq	-32(%rbp), %rdx
	.loc	1 2081 46               ## /Users/ericlei/Documents/ImageProcessing/sources/lodepng.c:2081:46
	movq	-40(%rbp), %rcx
	.loc	1 2081 54               ## /Users/ericlei/Documents/ImageProcessing/sources/lodepng.c:2081:54
	movq	-48(%rbp), %r8
	.loc	1 2081 12               ## /Users/ericlei/Documents/ImageProcessing/sources/lodepng.c:2081:12
	callq	_lodepng_deflate
	.loc	1 2081 5                ## /Users/ericlei/Documents/ImageProcessing/sources/lodepng.c:2081:5
	movl	%eax, -4(%rbp)
Ltmp372:
LBB21_3:
	.loc	1 2083 1 is_stmt 1      ## /Users/ericlei/Documents/ImageProcessing/sources/lodepng.c:2083:1
	movl	-4(%rbp), %eax
	addq	$48, %rsp
	popq	%rbp
	retq
Ltmp373:
Lfunc_end21:
	.cfi_endproc

	.p2align	4, 0x90
_lodepng_add32bitInt:                   ## @lodepng_add32bitInt
Lfunc_begin22:
	.loc	1 338 0                 ## /Users/ericlei/Documents/ImageProcessing/sources/lodepng.c:338:0
	.cfi_startproc
## BB#0:
	pushq	%rbp
Ltmp374:
	.cfi_def_cfa_offset 16
Ltmp375:
	.cfi_offset %rbp, -16
	movq	%rsp, %rbp
Ltmp376:
	.cfi_def_cfa_register %rbp
	subq	$16, %rsp
	movq	%rdi, -8(%rbp)
	movl	%esi, -12(%rbp)
Ltmp377:
	.loc	1 339 19 prologue_end   ## /Users/ericlei/Documents/ImageProcessing/sources/lodepng.c:339:19
	movq	-8(%rbp), %rdi
	.loc	1 339 27 is_stmt 0      ## /Users/ericlei/Documents/ImageProcessing/sources/lodepng.c:339:27
	movq	-8(%rbp), %rax
	.loc	1 339 35                ## /Users/ericlei/Documents/ImageProcessing/sources/lodepng.c:339:35
	movq	8(%rax), %rax
	.loc	1 339 40                ## /Users/ericlei/Documents/ImageProcessing/sources/lodepng.c:339:40
	addq	$4, %rax
	.loc	1 339 3                 ## /Users/ericlei/Documents/ImageProcessing/sources/lodepng.c:339:3
	movq	%rax, %rsi
	callq	_ucvector_resize
	.loc	1 340 37 is_stmt 1      ## /Users/ericlei/Documents/ImageProcessing/sources/lodepng.c:340:37
	movq	-8(%rbp), %rsi
	.loc	1 340 45 is_stmt 0      ## /Users/ericlei/Documents/ImageProcessing/sources/lodepng.c:340:45
	movq	8(%rsi), %rsi
	.loc	1 340 50                ## /Users/ericlei/Documents/ImageProcessing/sources/lodepng.c:340:50
	subq	$4, %rsi
	.loc	1 340 24                ## /Users/ericlei/Documents/ImageProcessing/sources/lodepng.c:340:24
	movq	-8(%rbp), %rdi
	addq	(%rdi), %rsi
	.loc	1 340 56                ## /Users/ericlei/Documents/ImageProcessing/sources/lodepng.c:340:56
	movl	-12(%rbp), %ecx
	.loc	1 340 3                 ## /Users/ericlei/Documents/ImageProcessing/sources/lodepng.c:340:3
	movq	%rsi, %rdi
	movl	%ecx, %esi
	movl	%eax, -16(%rbp)         ## 4-byte Spill
	callq	_lodepng_set32bitInt
	.loc	1 341 1 is_stmt 1       ## /Users/ericlei/Documents/ImageProcessing/sources/lodepng.c:341:1
	addq	$16, %rsp
	popq	%rbp
	retq
Ltmp378:
Lfunc_end22:
	.cfi_endproc

	.globl	_lodepng_compress_settings_init
	.p2align	4, 0x90
_lodepng_compress_settings_init:        ## @lodepng_compress_settings_init
Lfunc_begin23:
	.loc	1 2274 0                ## /Users/ericlei/Documents/ImageProcessing/sources/lodepng.c:2274:0
	.cfi_startproc
## BB#0:
	pushq	%rbp
Ltmp379:
	.cfi_def_cfa_offset 16
Ltmp380:
	.cfi_offset %rbp, -16
	movq	%rsp, %rbp
Ltmp381:
	.cfi_def_cfa_register %rbp
	movq	%rdi, -8(%rbp)
Ltmp382:
	.loc	1 2276 3 prologue_end   ## /Users/ericlei/Documents/ImageProcessing/sources/lodepng.c:2276:3
	movq	-8(%rbp), %rdi
	.loc	1 2276 19 is_stmt 0     ## /Users/ericlei/Documents/ImageProcessing/sources/lodepng.c:2276:19
	movl	$2, (%rdi)
	.loc	1 2277 3 is_stmt 1      ## /Users/ericlei/Documents/ImageProcessing/sources/lodepng.c:2277:3
	movq	-8(%rbp), %rdi
	.loc	1 2277 22 is_stmt 0     ## /Users/ericlei/Documents/ImageProcessing/sources/lodepng.c:2277:22
	movl	$1, 4(%rdi)
	.loc	1 2278 3 is_stmt 1      ## /Users/ericlei/Documents/ImageProcessing/sources/lodepng.c:2278:3
	movq	-8(%rbp), %rdi
	.loc	1 2278 24 is_stmt 0     ## /Users/ericlei/Documents/ImageProcessing/sources/lodepng.c:2278:24
	movl	$2048, 8(%rdi)          ## imm = 0x800
	.loc	1 2279 3 is_stmt 1      ## /Users/ericlei/Documents/ImageProcessing/sources/lodepng.c:2279:3
	movq	-8(%rbp), %rdi
	.loc	1 2279 22 is_stmt 0     ## /Users/ericlei/Documents/ImageProcessing/sources/lodepng.c:2279:22
	movl	$3, 12(%rdi)
	.loc	1 2280 3 is_stmt 1      ## /Users/ericlei/Documents/ImageProcessing/sources/lodepng.c:2280:3
	movq	-8(%rbp), %rdi
	.loc	1 2280 23 is_stmt 0     ## /Users/ericlei/Documents/ImageProcessing/sources/lodepng.c:2280:23
	movl	$128, 16(%rdi)
	.loc	1 2281 3 is_stmt 1      ## /Users/ericlei/Documents/ImageProcessing/sources/lodepng.c:2281:3
	movq	-8(%rbp), %rdi
	.loc	1 2281 26 is_stmt 0     ## /Users/ericlei/Documents/ImageProcessing/sources/lodepng.c:2281:26
	movl	$1, 20(%rdi)
	.loc	1 2283 3 is_stmt 1      ## /Users/ericlei/Documents/ImageProcessing/sources/lodepng.c:2283:3
	movq	-8(%rbp), %rdi
	.loc	1 2283 25 is_stmt 0     ## /Users/ericlei/Documents/ImageProcessing/sources/lodepng.c:2283:25
	movq	$0, 24(%rdi)
	.loc	1 2284 3 is_stmt 1      ## /Users/ericlei/Documents/ImageProcessing/sources/lodepng.c:2284:3
	movq	-8(%rbp), %rdi
	.loc	1 2284 28 is_stmt 0     ## /Users/ericlei/Documents/ImageProcessing/sources/lodepng.c:2284:28
	movq	$0, 32(%rdi)
	.loc	1 2285 3 is_stmt 1      ## /Users/ericlei/Documents/ImageProcessing/sources/lodepng.c:2285:3
	movq	-8(%rbp), %rdi
	.loc	1 2285 28 is_stmt 0     ## /Users/ericlei/Documents/ImageProcessing/sources/lodepng.c:2285:28
	movq	$0, 40(%rdi)
	.loc	1 2286 1 is_stmt 1      ## /Users/ericlei/Documents/ImageProcessing/sources/lodepng.c:2286:1
	popq	%rbp
	retq
Ltmp383:
Lfunc_end23:
	.cfi_endproc

	.globl	_lodepng_decompress_settings_init
	.p2align	4, 0x90
_lodepng_decompress_settings_init:      ## @lodepng_decompress_settings_init
Lfunc_begin24:
	.loc	1 2296 0                ## /Users/ericlei/Documents/ImageProcessing/sources/lodepng.c:2296:0
	.cfi_startproc
## BB#0:
	pushq	%rbp
Ltmp384:
	.cfi_def_cfa_offset 16
Ltmp385:
	.cfi_offset %rbp, -16
	movq	%rsp, %rbp
Ltmp386:
	.cfi_def_cfa_register %rbp
	movq	%rdi, -8(%rbp)
Ltmp387:
	.loc	1 2297 3 prologue_end   ## /Users/ericlei/Documents/ImageProcessing/sources/lodepng.c:2297:3
	movq	-8(%rbp), %rdi
	.loc	1 2297 28 is_stmt 0     ## /Users/ericlei/Documents/ImageProcessing/sources/lodepng.c:2297:28
	movl	$0, (%rdi)
	.loc	1 2299 3 is_stmt 1      ## /Users/ericlei/Documents/ImageProcessing/sources/lodepng.c:2299:3
	movq	-8(%rbp), %rdi
	.loc	1 2299 25 is_stmt 0     ## /Users/ericlei/Documents/ImageProcessing/sources/lodepng.c:2299:25
	movq	$0, 8(%rdi)
	.loc	1 2300 3 is_stmt 1      ## /Users/ericlei/Documents/ImageProcessing/sources/lodepng.c:2300:3
	movq	-8(%rbp), %rdi
	.loc	1 2300 28 is_stmt 0     ## /Users/ericlei/Documents/ImageProcessing/sources/lodepng.c:2300:28
	movq	$0, 16(%rdi)
	.loc	1 2301 3 is_stmt 1      ## /Users/ericlei/Documents/ImageProcessing/sources/lodepng.c:2301:3
	movq	-8(%rbp), %rdi
	.loc	1 2301 28 is_stmt 0     ## /Users/ericlei/Documents/ImageProcessing/sources/lodepng.c:2301:28
	movq	$0, 24(%rdi)
	.loc	1 2302 1 is_stmt 1      ## /Users/ericlei/Documents/ImageProcessing/sources/lodepng.c:2302:1
	popq	%rbp
	retq
Ltmp388:
Lfunc_end24:
	.cfi_endproc

	.globl	_lodepng_crc32
	.p2align	4, 0x90
_lodepng_crc32:                         ## @lodepng_crc32
Lfunc_begin25:
	.loc	1 2360 0                ## /Users/ericlei/Documents/ImageProcessing/sources/lodepng.c:2360:0
	.cfi_startproc
## BB#0:
	pushq	%rbp
Ltmp389:
	.cfi_def_cfa_offset 16
Ltmp390:
	.cfi_offset %rbp, -16
	movq	%rsp, %rbp
Ltmp391:
	.cfi_def_cfa_register %rbp
	movq	%rdi, -8(%rbp)
	movq	%rsi, -16(%rbp)
Ltmp392:
	.loc	1 2361 12 prologue_end  ## /Users/ericlei/Documents/ImageProcessing/sources/lodepng.c:2361:12
	movl	$-1, -20(%rbp)
Ltmp393:
	.loc	1 2363 9                ## /Users/ericlei/Documents/ImageProcessing/sources/lodepng.c:2363:9
	movq	$0, -32(%rbp)
LBB25_1:                                ## =>This Inner Loop Header: Depth=1
Ltmp394:
	.loc	1 2363 14 is_stmt 0 discriminator 1 ## /Users/ericlei/Documents/ImageProcessing/sources/lodepng.c:2363:14
	movq	-32(%rbp), %rax
	.loc	1 2363 16 discriminator 1 ## /Users/ericlei/Documents/ImageProcessing/sources/lodepng.c:2363:16
	cmpq	-16(%rbp), %rax
Ltmp395:
	.loc	1 2363 3 discriminator 1 ## /Users/ericlei/Documents/ImageProcessing/sources/lodepng.c:2363:3
	jae	LBB25_4
## BB#2:                                ##   in Loop: Header=BB25_1 Depth=1
	leaq	_lodepng_crc32_table(%rip), %rax
Ltmp396:
	.loc	1 2365 30 is_stmt 1     ## /Users/ericlei/Documents/ImageProcessing/sources/lodepng.c:2365:30
	movl	-20(%rbp), %ecx
	.loc	1 2365 39 is_stmt 0     ## /Users/ericlei/Documents/ImageProcessing/sources/lodepng.c:2365:39
	movq	-32(%rbp), %rdx
	.loc	1 2365 34               ## /Users/ericlei/Documents/ImageProcessing/sources/lodepng.c:2365:34
	movq	-8(%rbp), %rsi
	movzbl	(%rsi,%rdx), %edi
	.loc	1 2365 32               ## /Users/ericlei/Documents/ImageProcessing/sources/lodepng.c:2365:32
	xorl	%edi, %ecx
	.loc	1 2365 43               ## /Users/ericlei/Documents/ImageProcessing/sources/lodepng.c:2365:43
	andl	$255, %ecx
	.loc	1 2365 9                ## /Users/ericlei/Documents/ImageProcessing/sources/lodepng.c:2365:9
	movl	%ecx, %ecx
	movl	%ecx, %edx
	movl	(%rax,%rdx,4), %ecx
	.loc	1 2365 54               ## /Users/ericlei/Documents/ImageProcessing/sources/lodepng.c:2365:54
	movl	-20(%rbp), %edi
	.loc	1 2365 56               ## /Users/ericlei/Documents/ImageProcessing/sources/lodepng.c:2365:56
	shrl	$8, %edi
	.loc	1 2365 51               ## /Users/ericlei/Documents/ImageProcessing/sources/lodepng.c:2365:51
	xorl	%edi, %ecx
	.loc	1 2365 7                ## /Users/ericlei/Documents/ImageProcessing/sources/lodepng.c:2365:7
	movl	%ecx, -20(%rbp)
Ltmp397:
## BB#3:                                ##   in Loop: Header=BB25_1 Depth=1
	.loc	1 2363 26 is_stmt 1 discriminator 2 ## /Users/ericlei/Documents/ImageProcessing/sources/lodepng.c:2363:26
	movq	-32(%rbp), %rax
	addq	$1, %rax
	movq	%rax, -32(%rbp)
	.loc	1 2363 3 is_stmt 0 discriminator 2 ## /Users/ericlei/Documents/ImageProcessing/sources/lodepng.c:2363:3
	jmp	LBB25_1
Ltmp398:
LBB25_4:
	.loc	1 2367 10 is_stmt 1     ## /Users/ericlei/Documents/ImageProcessing/sources/lodepng.c:2367:10
	movl	-20(%rbp), %eax
	.loc	1 2367 12 is_stmt 0     ## /Users/ericlei/Documents/ImageProcessing/sources/lodepng.c:2367:12
	xorl	$-1, %eax
	.loc	1 2367 3                ## /Users/ericlei/Documents/ImageProcessing/sources/lodepng.c:2367:3
	popq	%rbp
	retq
Ltmp399:
Lfunc_end25:
	.cfi_endproc

	.globl	_lodepng_chunk_length
	.p2align	4, 0x90
_lodepng_chunk_length:                  ## @lodepng_chunk_length
Lfunc_begin26:
	.loc	1 2422 0 is_stmt 1      ## /Users/ericlei/Documents/ImageProcessing/sources/lodepng.c:2422:0
	.cfi_startproc
## BB#0:
	pushq	%rbp
Ltmp400:
	.cfi_def_cfa_offset 16
Ltmp401:
	.cfi_offset %rbp, -16
	movq	%rsp, %rbp
Ltmp402:
	.cfi_def_cfa_register %rbp
	subq	$16, %rsp
	movq	%rdi, -8(%rbp)
Ltmp403:
	.loc	1 2423 32 prologue_end  ## /Users/ericlei/Documents/ImageProcessing/sources/lodepng.c:2423:32
	movq	-8(%rbp), %rdi
	.loc	1 2423 10 is_stmt 0     ## /Users/ericlei/Documents/ImageProcessing/sources/lodepng.c:2423:10
	callq	_lodepng_read32bitInt
	.loc	1 2423 3                ## /Users/ericlei/Documents/ImageProcessing/sources/lodepng.c:2423:3
	addq	$16, %rsp
	popq	%rbp
	retq
Ltmp404:
Lfunc_end26:
	.cfi_endproc

	.globl	_lodepng_chunk_type
	.p2align	4, 0x90
_lodepng_chunk_type:                    ## @lodepng_chunk_type
Lfunc_begin27:
	.loc	1 2427 0 is_stmt 1      ## /Users/ericlei/Documents/ImageProcessing/sources/lodepng.c:2427:0
	.cfi_startproc
## BB#0:
	pushq	%rbp
Ltmp405:
	.cfi_def_cfa_offset 16
Ltmp406:
	.cfi_offset %rbp, -16
	movq	%rsp, %rbp
Ltmp407:
	.cfi_def_cfa_register %rbp
	movq	%rdi, -8(%rbp)
	movq	%rsi, -16(%rbp)
Ltmp408:
	.loc	1 2429 9 prologue_end   ## /Users/ericlei/Documents/ImageProcessing/sources/lodepng.c:2429:9
	movl	$0, -20(%rbp)
LBB27_1:                                ## =>This Inner Loop Header: Depth=1
Ltmp409:
	.loc	1 2429 16 is_stmt 0 discriminator 1 ## /Users/ericlei/Documents/ImageProcessing/sources/lodepng.c:2429:16
	cmpl	$4, -20(%rbp)
Ltmp410:
	.loc	1 2429 3 discriminator 1 ## /Users/ericlei/Documents/ImageProcessing/sources/lodepng.c:2429:3
	je	LBB27_4
## BB#2:                                ##   in Loop: Header=BB27_1 Depth=1
Ltmp411:
	.loc	1 2429 53 discriminator 2 ## /Users/ericlei/Documents/ImageProcessing/sources/lodepng.c:2429:53
	movl	-20(%rbp), %eax
	.loc	1 2429 51 discriminator 2 ## /Users/ericlei/Documents/ImageProcessing/sources/lodepng.c:2429:51
	addl	$4, %eax
	.loc	1 2429 43 discriminator 2 ## /Users/ericlei/Documents/ImageProcessing/sources/lodepng.c:2429:43
	movl	%eax, %eax
	movl	%eax, %ecx
	movq	-16(%rbp), %rdx
	movb	(%rdx,%rcx), %sil
	.loc	1 2429 27 discriminator 2 ## /Users/ericlei/Documents/ImageProcessing/sources/lodepng.c:2429:27
	movl	-20(%rbp), %eax
	movl	%eax, %ecx
	movq	-8(%rbp), %rdx
	.loc	1 2429 35 discriminator 2 ## /Users/ericlei/Documents/ImageProcessing/sources/lodepng.c:2429:35
	movb	%sil, (%rdx,%rcx)
## BB#3:                                ##   in Loop: Header=BB27_1 Depth=1
	.loc	1 2429 22 discriminator 3 ## /Users/ericlei/Documents/ImageProcessing/sources/lodepng.c:2429:22
	movl	-20(%rbp), %eax
	addl	$1, %eax
	movl	%eax, -20(%rbp)
	.loc	1 2429 3 discriminator 3 ## /Users/ericlei/Documents/ImageProcessing/sources/lodepng.c:2429:3
	jmp	LBB27_1
Ltmp412:
LBB27_4:
	.loc	1 2430 3 is_stmt 1      ## /Users/ericlei/Documents/ImageProcessing/sources/lodepng.c:2430:3
	movq	-8(%rbp), %rax
	.loc	1 2430 11 is_stmt 0     ## /Users/ericlei/Documents/ImageProcessing/sources/lodepng.c:2430:11
	movb	$0, 4(%rax)
	.loc	1 2431 1 is_stmt 1      ## /Users/ericlei/Documents/ImageProcessing/sources/lodepng.c:2431:1
	popq	%rbp
	retq
Ltmp413:
Lfunc_end27:
	.cfi_endproc

	.globl	_lodepng_chunk_type_equals
	.p2align	4, 0x90
_lodepng_chunk_type_equals:             ## @lodepng_chunk_type_equals
Lfunc_begin28:
	.loc	1 2434 0                ## /Users/ericlei/Documents/ImageProcessing/sources/lodepng.c:2434:0
	.cfi_startproc
## BB#0:
	pushq	%rbp
Ltmp414:
	.cfi_def_cfa_offset 16
Ltmp415:
	.cfi_offset %rbp, -16
	movq	%rsp, %rbp
Ltmp416:
	.cfi_def_cfa_register %rbp
	subq	$32, %rsp
	movq	%rdi, -16(%rbp)
	movq	%rsi, -24(%rbp)
Ltmp417:
	.loc	1 2435 13 prologue_end  ## /Users/ericlei/Documents/ImageProcessing/sources/lodepng.c:2435:13
	movq	-24(%rbp), %rdi
	.loc	1 2435 6 is_stmt 0      ## /Users/ericlei/Documents/ImageProcessing/sources/lodepng.c:2435:6
	callq	_strlen
	.loc	1 2435 19               ## /Users/ericlei/Documents/ImageProcessing/sources/lodepng.c:2435:19
	cmpq	$4, %rax
Ltmp418:
	.loc	1 2435 6                ## /Users/ericlei/Documents/ImageProcessing/sources/lodepng.c:2435:6
	je	LBB28_2
## BB#1:
Ltmp419:
	.loc	1 2435 25 discriminator 1 ## /Users/ericlei/Documents/ImageProcessing/sources/lodepng.c:2435:25
	movb	$0, -1(%rbp)
	jmp	LBB28_7
Ltmp420:
LBB28_2:
	xorl	%eax, %eax
	movb	%al, %cl
	.loc	1 2436 11 is_stmt 1     ## /Users/ericlei/Documents/ImageProcessing/sources/lodepng.c:2436:11
	movq	-16(%rbp), %rdx
	movzbl	4(%rdx), %eax
	.loc	1 2436 23 is_stmt 0     ## /Users/ericlei/Documents/ImageProcessing/sources/lodepng.c:2436:23
	movq	-24(%rbp), %rdx
	movsbl	(%rdx), %esi
	.loc	1 2436 20               ## /Users/ericlei/Documents/ImageProcessing/sources/lodepng.c:2436:20
	cmpl	%esi, %eax
	.loc	1 2436 31               ## /Users/ericlei/Documents/ImageProcessing/sources/lodepng.c:2436:31
	movb	%cl, -25(%rbp)          ## 1-byte Spill
	jne	LBB28_6
## BB#3:
	xorl	%eax, %eax
	movb	%al, %cl
	.loc	1 2436 34 discriminator 1 ## /Users/ericlei/Documents/ImageProcessing/sources/lodepng.c:2436:34
	movq	-16(%rbp), %rdx
	movzbl	5(%rdx), %eax
	.loc	1 2436 46 discriminator 1 ## /Users/ericlei/Documents/ImageProcessing/sources/lodepng.c:2436:46
	movq	-24(%rbp), %rdx
	movsbl	1(%rdx), %esi
	.loc	1 2436 43 discriminator 1 ## /Users/ericlei/Documents/ImageProcessing/sources/lodepng.c:2436:43
	cmpl	%esi, %eax
	.loc	1 2436 54 discriminator 1 ## /Users/ericlei/Documents/ImageProcessing/sources/lodepng.c:2436:54
	movb	%cl, -25(%rbp)          ## 1-byte Spill
	jne	LBB28_6
## BB#4:
	xorl	%eax, %eax
	movb	%al, %cl
	.loc	1 2436 57 discriminator 2 ## /Users/ericlei/Documents/ImageProcessing/sources/lodepng.c:2436:57
	movq	-16(%rbp), %rdx
	movzbl	6(%rdx), %eax
	.loc	1 2436 69 discriminator 2 ## /Users/ericlei/Documents/ImageProcessing/sources/lodepng.c:2436:69
	movq	-24(%rbp), %rdx
	movsbl	2(%rdx), %esi
	.loc	1 2436 66 discriminator 2 ## /Users/ericlei/Documents/ImageProcessing/sources/lodepng.c:2436:66
	cmpl	%esi, %eax
	.loc	1 2436 77 discriminator 2 ## /Users/ericlei/Documents/ImageProcessing/sources/lodepng.c:2436:77
	movb	%cl, -25(%rbp)          ## 1-byte Spill
	jne	LBB28_6
## BB#5:
	.loc	1 2436 80 discriminator 3 ## /Users/ericlei/Documents/ImageProcessing/sources/lodepng.c:2436:80
	movq	-16(%rbp), %rax
	movzbl	7(%rax), %ecx
	.loc	1 2436 92 discriminator 3 ## /Users/ericlei/Documents/ImageProcessing/sources/lodepng.c:2436:92
	movq	-24(%rbp), %rax
	movsbl	3(%rax), %edx
	.loc	1 2436 89 discriminator 3 ## /Users/ericlei/Documents/ImageProcessing/sources/lodepng.c:2436:89
	cmpl	%edx, %ecx
	sete	%sil
	movb	%sil, -25(%rbp)         ## 1-byte Spill
LBB28_6:
	movb	-25(%rbp), %al          ## 1-byte Reload
	.loc	1 2436 77 discriminator 4 ## /Users/ericlei/Documents/ImageProcessing/sources/lodepng.c:2436:77
	andb	$1, %al
	movzbl	%al, %ecx
	.loc	1 2436 10 discriminator 4 ## /Users/ericlei/Documents/ImageProcessing/sources/lodepng.c:2436:10
	movb	%cl, %al
	.loc	1 2436 3 discriminator 4 ## /Users/ericlei/Documents/ImageProcessing/sources/lodepng.c:2436:3
	movb	%al, -1(%rbp)
LBB28_7:
	.loc	1 2437 1 is_stmt 1      ## /Users/ericlei/Documents/ImageProcessing/sources/lodepng.c:2437:1
	movzbl	-1(%rbp), %eax
	addq	$32, %rsp
	popq	%rbp
	retq
Ltmp421:
Lfunc_end28:
	.cfi_endproc

	.globl	_lodepng_chunk_ancillary
	.p2align	4, 0x90
_lodepng_chunk_ancillary:               ## @lodepng_chunk_ancillary
Lfunc_begin29:
	.loc	1 2440 0                ## /Users/ericlei/Documents/ImageProcessing/sources/lodepng.c:2440:0
	.cfi_startproc
## BB#0:
	pushq	%rbp
Ltmp422:
	.cfi_def_cfa_offset 16
Ltmp423:
	.cfi_offset %rbp, -16
	movq	%rsp, %rbp
Ltmp424:
	.cfi_def_cfa_register %rbp
	movq	%rdi, -8(%rbp)
Ltmp425:
	.loc	1 2441 11 prologue_end  ## /Users/ericlei/Documents/ImageProcessing/sources/lodepng.c:2441:11
	movq	-8(%rbp), %rdi
	movzbl	4(%rdi), %eax
	.loc	1 2441 20 is_stmt 0     ## /Users/ericlei/Documents/ImageProcessing/sources/lodepng.c:2441:20
	andl	$32, %eax
	.loc	1 2441 26               ## /Users/ericlei/Documents/ImageProcessing/sources/lodepng.c:2441:26
	cmpl	$0, %eax
	setne	%cl
	andb	$1, %cl
	movzbl	%cl, %eax
	.loc	1 2441 9                ## /Users/ericlei/Documents/ImageProcessing/sources/lodepng.c:2441:9
	movb	%al, %cl
	.loc	1 2441 3                ## /Users/ericlei/Documents/ImageProcessing/sources/lodepng.c:2441:3
	movzbl	%cl, %eax
	popq	%rbp
	retq
Ltmp426:
Lfunc_end29:
	.cfi_endproc

	.globl	_lodepng_chunk_private
	.p2align	4, 0x90
_lodepng_chunk_private:                 ## @lodepng_chunk_private
Lfunc_begin30:
	.loc	1 2445 0 is_stmt 1      ## /Users/ericlei/Documents/ImageProcessing/sources/lodepng.c:2445:0
	.cfi_startproc
## BB#0:
	pushq	%rbp
Ltmp427:
	.cfi_def_cfa_offset 16
Ltmp428:
	.cfi_offset %rbp, -16
	movq	%rsp, %rbp
Ltmp429:
	.cfi_def_cfa_register %rbp
	movq	%rdi, -8(%rbp)
Ltmp430:
	.loc	1 2446 11 prologue_end  ## /Users/ericlei/Documents/ImageProcessing/sources/lodepng.c:2446:11
	movq	-8(%rbp), %rdi
	movzbl	6(%rdi), %eax
	.loc	1 2446 20 is_stmt 0     ## /Users/ericlei/Documents/ImageProcessing/sources/lodepng.c:2446:20
	andl	$32, %eax
	.loc	1 2446 26               ## /Users/ericlei/Documents/ImageProcessing/sources/lodepng.c:2446:26
	cmpl	$0, %eax
	setne	%cl
	andb	$1, %cl
	movzbl	%cl, %eax
	.loc	1 2446 9                ## /Users/ericlei/Documents/ImageProcessing/sources/lodepng.c:2446:9
	movb	%al, %cl
	.loc	1 2446 3                ## /Users/ericlei/Documents/ImageProcessing/sources/lodepng.c:2446:3
	movzbl	%cl, %eax
	popq	%rbp
	retq
Ltmp431:
Lfunc_end30:
	.cfi_endproc

	.globl	_lodepng_chunk_safetocopy
	.p2align	4, 0x90
_lodepng_chunk_safetocopy:              ## @lodepng_chunk_safetocopy
Lfunc_begin31:
	.loc	1 2450 0 is_stmt 1      ## /Users/ericlei/Documents/ImageProcessing/sources/lodepng.c:2450:0
	.cfi_startproc
## BB#0:
	pushq	%rbp
Ltmp432:
	.cfi_def_cfa_offset 16
Ltmp433:
	.cfi_offset %rbp, -16
	movq	%rsp, %rbp
Ltmp434:
	.cfi_def_cfa_register %rbp
	movq	%rdi, -8(%rbp)
Ltmp435:
	.loc	1 2451 11 prologue_end  ## /Users/ericlei/Documents/ImageProcessing/sources/lodepng.c:2451:11
	movq	-8(%rbp), %rdi
	movzbl	7(%rdi), %eax
	.loc	1 2451 20 is_stmt 0     ## /Users/ericlei/Documents/ImageProcessing/sources/lodepng.c:2451:20
	andl	$32, %eax
	.loc	1 2451 26               ## /Users/ericlei/Documents/ImageProcessing/sources/lodepng.c:2451:26
	cmpl	$0, %eax
	setne	%cl
	andb	$1, %cl
	movzbl	%cl, %eax
	.loc	1 2451 9                ## /Users/ericlei/Documents/ImageProcessing/sources/lodepng.c:2451:9
	movb	%al, %cl
	.loc	1 2451 3                ## /Users/ericlei/Documents/ImageProcessing/sources/lodepng.c:2451:3
	movzbl	%cl, %eax
	popq	%rbp
	retq
Ltmp436:
Lfunc_end31:
	.cfi_endproc

	.globl	_lodepng_chunk_data
	.p2align	4, 0x90
_lodepng_chunk_data:                    ## @lodepng_chunk_data
Lfunc_begin32:
	.loc	1 2455 0 is_stmt 1      ## /Users/ericlei/Documents/ImageProcessing/sources/lodepng.c:2455:0
	.cfi_startproc
## BB#0:
	pushq	%rbp
Ltmp437:
	.cfi_def_cfa_offset 16
Ltmp438:
	.cfi_offset %rbp, -16
	movq	%rsp, %rbp
Ltmp439:
	.cfi_def_cfa_register %rbp
	movq	%rdi, -8(%rbp)
Ltmp440:
	.loc	1 2456 11 prologue_end  ## /Users/ericlei/Documents/ImageProcessing/sources/lodepng.c:2456:11
	movq	-8(%rbp), %rdi
	addq	$8, %rdi
	.loc	1 2456 3 is_stmt 0      ## /Users/ericlei/Documents/ImageProcessing/sources/lodepng.c:2456:3
	movq	%rdi, %rax
	popq	%rbp
	retq
Ltmp441:
Lfunc_end32:
	.cfi_endproc

	.globl	_lodepng_chunk_data_const
	.p2align	4, 0x90
_lodepng_chunk_data_const:              ## @lodepng_chunk_data_const
Lfunc_begin33:
	.loc	1 2460 0 is_stmt 1      ## /Users/ericlei/Documents/ImageProcessing/sources/lodepng.c:2460:0
	.cfi_startproc
## BB#0:
	pushq	%rbp
Ltmp442:
	.cfi_def_cfa_offset 16
Ltmp443:
	.cfi_offset %rbp, -16
	movq	%rsp, %rbp
Ltmp444:
	.cfi_def_cfa_register %rbp
	movq	%rdi, -8(%rbp)
Ltmp445:
	.loc	1 2461 11 prologue_end  ## /Users/ericlei/Documents/ImageProcessing/sources/lodepng.c:2461:11
	movq	-8(%rbp), %rdi
	addq	$8, %rdi
	.loc	1 2461 3 is_stmt 0      ## /Users/ericlei/Documents/ImageProcessing/sources/lodepng.c:2461:3
	movq	%rdi, %rax
	popq	%rbp
	retq
Ltmp446:
Lfunc_end33:
	.cfi_endproc

	.globl	_lodepng_chunk_check_crc
	.p2align	4, 0x90
_lodepng_chunk_check_crc:               ## @lodepng_chunk_check_crc
Lfunc_begin34:
	.loc	1 2465 0 is_stmt 1      ## /Users/ericlei/Documents/ImageProcessing/sources/lodepng.c:2465:0
	.cfi_startproc
## BB#0:
	pushq	%rbp
Ltmp447:
	.cfi_def_cfa_offset 16
Ltmp448:
	.cfi_offset %rbp, -16
	movq	%rsp, %rbp
Ltmp449:
	.cfi_def_cfa_register %rbp
	subq	$32, %rsp
	movq	%rdi, -16(%rbp)
Ltmp450:
	.loc	1 2466 42 prologue_end  ## /Users/ericlei/Documents/ImageProcessing/sources/lodepng.c:2466:42
	movq	-16(%rbp), %rdi
	.loc	1 2466 21 is_stmt 0     ## /Users/ericlei/Documents/ImageProcessing/sources/lodepng.c:2466:21
	callq	_lodepng_chunk_length
	.loc	1 2466 12               ## /Users/ericlei/Documents/ImageProcessing/sources/lodepng.c:2466:12
	movl	%eax, -20(%rbp)
	.loc	1 2467 46 is_stmt 1     ## /Users/ericlei/Documents/ImageProcessing/sources/lodepng.c:2467:46
	movl	-20(%rbp), %eax
	.loc	1 2467 53 is_stmt 0     ## /Users/ericlei/Documents/ImageProcessing/sources/lodepng.c:2467:53
	addl	$8, %eax
	.loc	1 2467 40               ## /Users/ericlei/Documents/ImageProcessing/sources/lodepng.c:2467:40
	movl	%eax, %eax
	movl	%eax, %edi
	addq	-16(%rbp), %rdi
	.loc	1 2467 18               ## /Users/ericlei/Documents/ImageProcessing/sources/lodepng.c:2467:18
	callq	_lodepng_read32bitInt
	.loc	1 2467 12               ## /Users/ericlei/Documents/ImageProcessing/sources/lodepng.c:2467:12
	movl	%eax, -24(%rbp)
	.loc	1 2469 38 is_stmt 1     ## /Users/ericlei/Documents/ImageProcessing/sources/lodepng.c:2469:38
	movq	-16(%rbp), %rdi
	addq	$4, %rdi
	.loc	1 2469 48 is_stmt 0     ## /Users/ericlei/Documents/ImageProcessing/sources/lodepng.c:2469:48
	movl	-20(%rbp), %eax
	.loc	1 2469 55               ## /Users/ericlei/Documents/ImageProcessing/sources/lodepng.c:2469:55
	addl	$4, %eax
	.loc	1 2469 48               ## /Users/ericlei/Documents/ImageProcessing/sources/lodepng.c:2469:48
	movl	%eax, %eax
	movl	%eax, %esi
	.loc	1 2469 23               ## /Users/ericlei/Documents/ImageProcessing/sources/lodepng.c:2469:23
	callq	_lodepng_crc32
	.loc	1 2469 12               ## /Users/ericlei/Documents/ImageProcessing/sources/lodepng.c:2469:12
	movl	%eax, -28(%rbp)
Ltmp451:
	.loc	1 2470 6 is_stmt 1      ## /Users/ericlei/Documents/ImageProcessing/sources/lodepng.c:2470:6
	movl	-24(%rbp), %eax
	.loc	1 2470 10 is_stmt 0     ## /Users/ericlei/Documents/ImageProcessing/sources/lodepng.c:2470:10
	cmpl	-28(%rbp), %eax
Ltmp452:
	.loc	1 2470 6                ## /Users/ericlei/Documents/ImageProcessing/sources/lodepng.c:2470:6
	je	LBB34_2
## BB#1:
Ltmp453:
	.loc	1 2470 23 discriminator 1 ## /Users/ericlei/Documents/ImageProcessing/sources/lodepng.c:2470:23
	movl	$1, -4(%rbp)
	jmp	LBB34_3
LBB34_2:
	.loc	1 2471 8 is_stmt 1      ## /Users/ericlei/Documents/ImageProcessing/sources/lodepng.c:2471:8
	movl	$0, -4(%rbp)
Ltmp454:
LBB34_3:
	.loc	1 2472 1                ## /Users/ericlei/Documents/ImageProcessing/sources/lodepng.c:2472:1
	movl	-4(%rbp), %eax
	addq	$32, %rsp
	popq	%rbp
	retq
Ltmp455:
Lfunc_end34:
	.cfi_endproc

	.globl	_lodepng_chunk_generate_crc
	.p2align	4, 0x90
_lodepng_chunk_generate_crc:            ## @lodepng_chunk_generate_crc
Lfunc_begin35:
	.loc	1 2475 0                ## /Users/ericlei/Documents/ImageProcessing/sources/lodepng.c:2475:0
	.cfi_startproc
## BB#0:
	pushq	%rbp
Ltmp456:
	.cfi_def_cfa_offset 16
Ltmp457:
	.cfi_offset %rbp, -16
	movq	%rsp, %rbp
Ltmp458:
	.cfi_def_cfa_register %rbp
	subq	$16, %rsp
	movq	%rdi, -8(%rbp)
Ltmp459:
	.loc	1 2476 42 prologue_end  ## /Users/ericlei/Documents/ImageProcessing/sources/lodepng.c:2476:42
	movq	-8(%rbp), %rdi
	.loc	1 2476 21 is_stmt 0     ## /Users/ericlei/Documents/ImageProcessing/sources/lodepng.c:2476:21
	callq	_lodepng_chunk_length
	.loc	1 2476 12               ## /Users/ericlei/Documents/ImageProcessing/sources/lodepng.c:2476:12
	movl	%eax, -12(%rbp)
	.loc	1 2477 33 is_stmt 1     ## /Users/ericlei/Documents/ImageProcessing/sources/lodepng.c:2477:33
	movq	-8(%rbp), %rdi
	addq	$4, %rdi
	.loc	1 2477 43 is_stmt 0     ## /Users/ericlei/Documents/ImageProcessing/sources/lodepng.c:2477:43
	movl	-12(%rbp), %eax
	.loc	1 2477 50               ## /Users/ericlei/Documents/ImageProcessing/sources/lodepng.c:2477:50
	addl	$4, %eax
	.loc	1 2477 43               ## /Users/ericlei/Documents/ImageProcessing/sources/lodepng.c:2477:43
	movl	%eax, %eax
	movl	%eax, %esi
	.loc	1 2477 18               ## /Users/ericlei/Documents/ImageProcessing/sources/lodepng.c:2477:18
	callq	_lodepng_crc32
	.loc	1 2477 12               ## /Users/ericlei/Documents/ImageProcessing/sources/lodepng.c:2477:12
	movl	%eax, -16(%rbp)
	.loc	1 2478 23 is_stmt 1     ## /Users/ericlei/Documents/ImageProcessing/sources/lodepng.c:2478:23
	movq	-8(%rbp), %rsi
	.loc	1 2478 29 is_stmt 0     ## /Users/ericlei/Documents/ImageProcessing/sources/lodepng.c:2478:29
	addq	$8, %rsi
	.loc	1 2478 33               ## /Users/ericlei/Documents/ImageProcessing/sources/lodepng.c:2478:33
	movl	-12(%rbp), %eax
	movl	%eax, %edi
	addq	%rdi, %rsi
	.loc	1 2478 43               ## /Users/ericlei/Documents/ImageProcessing/sources/lodepng.c:2478:43
	movl	-16(%rbp), %eax
	.loc	1 2478 3                ## /Users/ericlei/Documents/ImageProcessing/sources/lodepng.c:2478:3
	movq	%rsi, %rdi
	movl	%eax, %esi
	callq	_lodepng_set32bitInt
	.loc	1 2479 1 is_stmt 1      ## /Users/ericlei/Documents/ImageProcessing/sources/lodepng.c:2479:1
	addq	$16, %rsp
	popq	%rbp
	retq
Ltmp460:
Lfunc_end35:
	.cfi_endproc

	.p2align	4, 0x90
_lodepng_set32bitInt:                   ## @lodepng_set32bitInt
Lfunc_begin36:
	.loc	1 328 0                 ## /Users/ericlei/Documents/ImageProcessing/sources/lodepng.c:328:0
	.cfi_startproc
## BB#0:
	pushq	%rbp
Ltmp461:
	.cfi_def_cfa_offset 16
Ltmp462:
	.cfi_offset %rbp, -16
	movq	%rsp, %rbp
Ltmp463:
	.cfi_def_cfa_register %rbp
	movq	%rdi, -8(%rbp)
	movl	%esi, -12(%rbp)
Ltmp464:
	.loc	1 329 32 prologue_end   ## /Users/ericlei/Documents/ImageProcessing/sources/lodepng.c:329:32
	movl	-12(%rbp), %esi
	.loc	1 329 38 is_stmt 0      ## /Users/ericlei/Documents/ImageProcessing/sources/lodepng.c:329:38
	shrl	$24, %esi
	.loc	1 329 45                ## /Users/ericlei/Documents/ImageProcessing/sources/lodepng.c:329:45
	andl	$255, %esi
	.loc	1 329 15                ## /Users/ericlei/Documents/ImageProcessing/sources/lodepng.c:329:15
	movb	%sil, %al
	.loc	1 329 3                 ## /Users/ericlei/Documents/ImageProcessing/sources/lodepng.c:329:3
	movq	-8(%rbp), %rdi
	.loc	1 329 13                ## /Users/ericlei/Documents/ImageProcessing/sources/lodepng.c:329:13
	movb	%al, (%rdi)
	.loc	1 330 32 is_stmt 1      ## /Users/ericlei/Documents/ImageProcessing/sources/lodepng.c:330:32
	movl	-12(%rbp), %esi
	.loc	1 330 38 is_stmt 0      ## /Users/ericlei/Documents/ImageProcessing/sources/lodepng.c:330:38
	shrl	$16, %esi
	.loc	1 330 45                ## /Users/ericlei/Documents/ImageProcessing/sources/lodepng.c:330:45
	andl	$255, %esi
	.loc	1 330 15                ## /Users/ericlei/Documents/ImageProcessing/sources/lodepng.c:330:15
	movb	%sil, %al
	.loc	1 330 3                 ## /Users/ericlei/Documents/ImageProcessing/sources/lodepng.c:330:3
	movq	-8(%rbp), %rdi
	.loc	1 330 13                ## /Users/ericlei/Documents/ImageProcessing/sources/lodepng.c:330:13
	movb	%al, 1(%rdi)
	.loc	1 331 32 is_stmt 1      ## /Users/ericlei/Documents/ImageProcessing/sources/lodepng.c:331:32
	movl	-12(%rbp), %esi
	.loc	1 331 38 is_stmt 0      ## /Users/ericlei/Documents/ImageProcessing/sources/lodepng.c:331:38
	shrl	$8, %esi
	.loc	1 331 45                ## /Users/ericlei/Documents/ImageProcessing/sources/lodepng.c:331:45
	andl	$255, %esi
	.loc	1 331 15                ## /Users/ericlei/Documents/ImageProcessing/sources/lodepng.c:331:15
	movb	%sil, %al
	.loc	1 331 3                 ## /Users/ericlei/Documents/ImageProcessing/sources/lodepng.c:331:3
	movq	-8(%rbp), %rdi
	.loc	1 331 13                ## /Users/ericlei/Documents/ImageProcessing/sources/lodepng.c:331:13
	movb	%al, 2(%rdi)
	.loc	1 332 32 is_stmt 1      ## /Users/ericlei/Documents/ImageProcessing/sources/lodepng.c:332:32
	movl	-12(%rbp), %esi
	.loc	1 332 45 is_stmt 0      ## /Users/ericlei/Documents/ImageProcessing/sources/lodepng.c:332:45
	andl	$255, %esi
	.loc	1 332 15                ## /Users/ericlei/Documents/ImageProcessing/sources/lodepng.c:332:15
	movb	%sil, %al
	.loc	1 332 3                 ## /Users/ericlei/Documents/ImageProcessing/sources/lodepng.c:332:3
	movq	-8(%rbp), %rdi
	.loc	1 332 13                ## /Users/ericlei/Documents/ImageProcessing/sources/lodepng.c:332:13
	movb	%al, 3(%rdi)
	.loc	1 333 1 is_stmt 1       ## /Users/ericlei/Documents/ImageProcessing/sources/lodepng.c:333:1
	popq	%rbp
	retq
Ltmp465:
Lfunc_end36:
	.cfi_endproc

	.globl	_lodepng_chunk_next
	.p2align	4, 0x90
_lodepng_chunk_next:                    ## @lodepng_chunk_next
Lfunc_begin37:
	.loc	1 2482 0                ## /Users/ericlei/Documents/ImageProcessing/sources/lodepng.c:2482:0
	.cfi_startproc
## BB#0:
	pushq	%rbp
Ltmp466:
	.cfi_def_cfa_offset 16
Ltmp467:
	.cfi_offset %rbp, -16
	movq	%rsp, %rbp
Ltmp468:
	.cfi_def_cfa_register %rbp
	subq	$16, %rsp
	movq	%rdi, -8(%rbp)
Ltmp469:
	.loc	1 2483 54 prologue_end  ## /Users/ericlei/Documents/ImageProcessing/sources/lodepng.c:2483:54
	movq	-8(%rbp), %rdi
	.loc	1 2483 33 is_stmt 0     ## /Users/ericlei/Documents/ImageProcessing/sources/lodepng.c:2483:33
	callq	_lodepng_chunk_length
	.loc	1 2483 61               ## /Users/ericlei/Documents/ImageProcessing/sources/lodepng.c:2483:61
	addl	$12, %eax
	.loc	1 2483 12               ## /Users/ericlei/Documents/ImageProcessing/sources/lodepng.c:2483:12
	movl	%eax, -12(%rbp)
	.loc	1 2484 11 is_stmt 1     ## /Users/ericlei/Documents/ImageProcessing/sources/lodepng.c:2484:11
	movl	-12(%rbp), %eax
	movl	%eax, %edi
	addq	-8(%rbp), %rdi
	.loc	1 2484 3 is_stmt 0      ## /Users/ericlei/Documents/ImageProcessing/sources/lodepng.c:2484:3
	movq	%rdi, %rax
	addq	$16, %rsp
	popq	%rbp
	retq
Ltmp470:
Lfunc_end37:
	.cfi_endproc

	.globl	_lodepng_chunk_next_const
	.p2align	4, 0x90
_lodepng_chunk_next_const:              ## @lodepng_chunk_next_const
Lfunc_begin38:
	.loc	1 2488 0 is_stmt 1      ## /Users/ericlei/Documents/ImageProcessing/sources/lodepng.c:2488:0
	.cfi_startproc
## BB#0:
	pushq	%rbp
Ltmp471:
	.cfi_def_cfa_offset 16
Ltmp472:
	.cfi_offset %rbp, -16
	movq	%rsp, %rbp
Ltmp473:
	.cfi_def_cfa_register %rbp
	subq	$16, %rsp
	movq	%rdi, -8(%rbp)
Ltmp474:
	.loc	1 2489 54 prologue_end  ## /Users/ericlei/Documents/ImageProcessing/sources/lodepng.c:2489:54
	movq	-8(%rbp), %rdi
	.loc	1 2489 33 is_stmt 0     ## /Users/ericlei/Documents/ImageProcessing/sources/lodepng.c:2489:33
	callq	_lodepng_chunk_length
	.loc	1 2489 61               ## /Users/ericlei/Documents/ImageProcessing/sources/lodepng.c:2489:61
	addl	$12, %eax
	.loc	1 2489 12               ## /Users/ericlei/Documents/ImageProcessing/sources/lodepng.c:2489:12
	movl	%eax, -12(%rbp)
	.loc	1 2490 11 is_stmt 1     ## /Users/ericlei/Documents/ImageProcessing/sources/lodepng.c:2490:11
	movl	-12(%rbp), %eax
	movl	%eax, %edi
	addq	-8(%rbp), %rdi
	.loc	1 2490 3 is_stmt 0      ## /Users/ericlei/Documents/ImageProcessing/sources/lodepng.c:2490:3
	movq	%rdi, %rax
	addq	$16, %rsp
	popq	%rbp
	retq
Ltmp475:
Lfunc_end38:
	.cfi_endproc

	.globl	_lodepng_chunk_append
	.p2align	4, 0x90
_lodepng_chunk_append:                  ## @lodepng_chunk_append
Lfunc_begin39:
	.loc	1 2494 0 is_stmt 1      ## /Users/ericlei/Documents/ImageProcessing/sources/lodepng.c:2494:0
	.cfi_startproc
## BB#0:
	pushq	%rbp
Ltmp476:
	.cfi_def_cfa_offset 16
Ltmp477:
	.cfi_offset %rbp, -16
	movq	%rsp, %rbp
Ltmp478:
	.cfi_def_cfa_register %rbp
	subq	$64, %rsp
	movq	%rdi, -16(%rbp)
	movq	%rsi, -24(%rbp)
	movq	%rdx, -32(%rbp)
Ltmp479:
	.loc	1 2496 54 prologue_end  ## /Users/ericlei/Documents/ImageProcessing/sources/lodepng.c:2496:54
	movq	-32(%rbp), %rdi
	.loc	1 2496 33 is_stmt 0     ## /Users/ericlei/Documents/ImageProcessing/sources/lodepng.c:2496:33
	callq	_lodepng_chunk_length
	.loc	1 2496 61               ## /Users/ericlei/Documents/ImageProcessing/sources/lodepng.c:2496:61
	addl	$12, %eax
	.loc	1 2496 12               ## /Users/ericlei/Documents/ImageProcessing/sources/lodepng.c:2496:12
	movl	%eax, -40(%rbp)
	.loc	1 2498 25 is_stmt 1     ## /Users/ericlei/Documents/ImageProcessing/sources/lodepng.c:2498:25
	movq	-24(%rbp), %rdx
	.loc	1 2498 24 is_stmt 0     ## /Users/ericlei/Documents/ImageProcessing/sources/lodepng.c:2498:24
	movq	(%rdx), %rdx
	.loc	1 2498 38               ## /Users/ericlei/Documents/ImageProcessing/sources/lodepng.c:2498:38
	movl	-40(%rbp), %eax
	movl	%eax, %esi
	.loc	1 2498 36               ## /Users/ericlei/Documents/ImageProcessing/sources/lodepng.c:2498:36
	addq	%rsi, %rdx
	.loc	1 2498 10               ## /Users/ericlei/Documents/ImageProcessing/sources/lodepng.c:2498:10
	movq	%rdx, -64(%rbp)
Ltmp480:
	.loc	1 2499 6 is_stmt 1      ## /Users/ericlei/Documents/ImageProcessing/sources/lodepng.c:2499:6
	movq	-64(%rbp), %rdx
	.loc	1 2499 19 is_stmt 0     ## /Users/ericlei/Documents/ImageProcessing/sources/lodepng.c:2499:19
	movl	-40(%rbp), %eax
	movl	%eax, %esi
	.loc	1 2499 17               ## /Users/ericlei/Documents/ImageProcessing/sources/lodepng.c:2499:17
	cmpq	%rsi, %rdx
	.loc	1 2499 38               ## /Users/ericlei/Documents/ImageProcessing/sources/lodepng.c:2499:38
	jb	LBB39_2
## BB#1:
	.loc	1 2499 41 discriminator 1 ## /Users/ericlei/Documents/ImageProcessing/sources/lodepng.c:2499:41
	movq	-64(%rbp), %rax
	.loc	1 2499 56 discriminator 1 ## /Users/ericlei/Documents/ImageProcessing/sources/lodepng.c:2499:56
	movq	-24(%rbp), %rcx
	.loc	1 2499 52 discriminator 1 ## /Users/ericlei/Documents/ImageProcessing/sources/lodepng.c:2499:52
	cmpq	(%rcx), %rax
Ltmp481:
	.loc	1 2499 6 discriminator 1 ## /Users/ericlei/Documents/ImageProcessing/sources/lodepng.c:2499:6
	jae	LBB39_3
LBB39_2:
Ltmp482:
	.loc	1 2499 68 discriminator 2 ## /Users/ericlei/Documents/ImageProcessing/sources/lodepng.c:2499:68
	movl	$77, -4(%rbp)
	jmp	LBB39_10
Ltmp483:
LBB39_3:
	.loc	1 2501 49 is_stmt 1     ## /Users/ericlei/Documents/ImageProcessing/sources/lodepng.c:2501:49
	movq	-16(%rbp), %rax
	.loc	1 2501 48 is_stmt 0     ## /Users/ericlei/Documents/ImageProcessing/sources/lodepng.c:2501:48
	movq	(%rax), %rdi
	.loc	1 2501 54               ## /Users/ericlei/Documents/ImageProcessing/sources/lodepng.c:2501:54
	movq	-64(%rbp), %rsi
	.loc	1 2501 32               ## /Users/ericlei/Documents/ImageProcessing/sources/lodepng.c:2501:32
	callq	_lodepng_realloc
	.loc	1 2501 14               ## /Users/ericlei/Documents/ImageProcessing/sources/lodepng.c:2501:14
	movq	%rax, -56(%rbp)
Ltmp484:
	.loc	1 2502 7 is_stmt 1      ## /Users/ericlei/Documents/ImageProcessing/sources/lodepng.c:2502:7
	cmpq	$0, -56(%rbp)
Ltmp485:
	.loc	1 2502 6 is_stmt 0      ## /Users/ericlei/Documents/ImageProcessing/sources/lodepng.c:2502:6
	jne	LBB39_5
## BB#4:
Ltmp486:
	.loc	1 2502 19 discriminator 1 ## /Users/ericlei/Documents/ImageProcessing/sources/lodepng.c:2502:19
	movl	$83, -4(%rbp)
	jmp	LBB39_10
Ltmp487:
LBB39_5:
	.loc	1 2503 12 is_stmt 1     ## /Users/ericlei/Documents/ImageProcessing/sources/lodepng.c:2503:12
	movq	-56(%rbp), %rax
	.loc	1 2503 5 is_stmt 0      ## /Users/ericlei/Documents/ImageProcessing/sources/lodepng.c:2503:5
	movq	-16(%rbp), %rcx
	.loc	1 2503 10               ## /Users/ericlei/Documents/ImageProcessing/sources/lodepng.c:2503:10
	movq	%rax, (%rcx)
	.loc	1 2504 18 is_stmt 1     ## /Users/ericlei/Documents/ImageProcessing/sources/lodepng.c:2504:18
	movq	-64(%rbp), %rax
	.loc	1 2504 5 is_stmt 0      ## /Users/ericlei/Documents/ImageProcessing/sources/lodepng.c:2504:5
	movq	-24(%rbp), %rcx
	.loc	1 2504 16               ## /Users/ericlei/Documents/ImageProcessing/sources/lodepng.c:2504:16
	movq	%rax, (%rcx)
	.loc	1 2505 25 is_stmt 1     ## /Users/ericlei/Documents/ImageProcessing/sources/lodepng.c:2505:25
	movq	-64(%rbp), %rax
	.loc	1 2505 38 is_stmt 0     ## /Users/ericlei/Documents/ImageProcessing/sources/lodepng.c:2505:38
	movl	-40(%rbp), %edx
	movl	%edx, %ecx
	.loc	1 2505 36               ## /Users/ericlei/Documents/ImageProcessing/sources/lodepng.c:2505:36
	subq	%rcx, %rax
	.loc	1 2505 20               ## /Users/ericlei/Documents/ImageProcessing/sources/lodepng.c:2505:20
	movq	-16(%rbp), %rcx
	.loc	1 2505 18               ## /Users/ericlei/Documents/ImageProcessing/sources/lodepng.c:2505:18
	addq	(%rcx), %rax
	.loc	1 2505 15               ## /Users/ericlei/Documents/ImageProcessing/sources/lodepng.c:2505:15
	movq	%rax, -48(%rbp)
Ltmp488:
	.loc	1 2507 9 is_stmt 1      ## /Users/ericlei/Documents/ImageProcessing/sources/lodepng.c:2507:9
	movl	$0, -36(%rbp)
LBB39_6:                                ## =>This Inner Loop Header: Depth=1
Ltmp489:
	.loc	1 2507 14 is_stmt 0 discriminator 1 ## /Users/ericlei/Documents/ImageProcessing/sources/lodepng.c:2507:14
	movl	-36(%rbp), %eax
	.loc	1 2507 16 discriminator 1 ## /Users/ericlei/Documents/ImageProcessing/sources/lodepng.c:2507:16
	cmpl	-40(%rbp), %eax
Ltmp490:
	.loc	1 2507 3 discriminator 1 ## /Users/ericlei/Documents/ImageProcessing/sources/lodepng.c:2507:3
	je	LBB39_9
## BB#7:                                ##   in Loop: Header=BB39_6 Depth=1
Ltmp491:
	.loc	1 2507 61 discriminator 2 ## /Users/ericlei/Documents/ImageProcessing/sources/lodepng.c:2507:61
	movl	-36(%rbp), %eax
	movl	%eax, %ecx
	movq	-32(%rbp), %rdx
	movb	(%rdx,%rcx), %sil
	.loc	1 2507 44 discriminator 2 ## /Users/ericlei/Documents/ImageProcessing/sources/lodepng.c:2507:44
	movl	-36(%rbp), %eax
	movl	%eax, %ecx
	movq	-48(%rbp), %rdx
	.loc	1 2507 59 discriminator 2 ## /Users/ericlei/Documents/ImageProcessing/sources/lodepng.c:2507:59
	movb	%sil, (%rdx,%rcx)
## BB#8:                                ##   in Loop: Header=BB39_6 Depth=1
	.loc	1 2507 39 discriminator 3 ## /Users/ericlei/Documents/ImageProcessing/sources/lodepng.c:2507:39
	movl	-36(%rbp), %eax
	addl	$1, %eax
	movl	%eax, -36(%rbp)
	.loc	1 2507 3 discriminator 3 ## /Users/ericlei/Documents/ImageProcessing/sources/lodepng.c:2507:3
	jmp	LBB39_6
Ltmp492:
LBB39_9:
	.loc	1 2509 3 is_stmt 1      ## /Users/ericlei/Documents/ImageProcessing/sources/lodepng.c:2509:3
	movl	$0, -4(%rbp)
LBB39_10:
	.loc	1 2510 1                ## /Users/ericlei/Documents/ImageProcessing/sources/lodepng.c:2510:1
	movl	-4(%rbp), %eax
	addq	$64, %rsp
	popq	%rbp
	retq
Ltmp493:
Lfunc_end39:
	.cfi_endproc

	.p2align	4, 0x90
_lodepng_realloc:                       ## @lodepng_realloc
Lfunc_begin40:
	.loc	1 69 0                  ## /Users/ericlei/Documents/ImageProcessing/sources/lodepng.c:69:0
	.cfi_startproc
## BB#0:
	pushq	%rbp
Ltmp494:
	.cfi_def_cfa_offset 16
Ltmp495:
	.cfi_offset %rbp, -16
	movq	%rsp, %rbp
Ltmp496:
	.cfi_def_cfa_register %rbp
	subq	$16, %rsp
	movq	%rdi, -8(%rbp)
	movq	%rsi, -16(%rbp)
Ltmp497:
	.loc	1 70 18 prologue_end    ## /Users/ericlei/Documents/ImageProcessing/sources/lodepng.c:70:18
	movq	-8(%rbp), %rdi
	.loc	1 70 23 is_stmt 0       ## /Users/ericlei/Documents/ImageProcessing/sources/lodepng.c:70:23
	movq	-16(%rbp), %rsi
	.loc	1 70 10                 ## /Users/ericlei/Documents/ImageProcessing/sources/lodepng.c:70:10
	callq	_realloc
	.loc	1 70 3                  ## /Users/ericlei/Documents/ImageProcessing/sources/lodepng.c:70:3
	addq	$16, %rsp
	popq	%rbp
	retq
Ltmp498:
Lfunc_end40:
	.cfi_endproc

	.globl	_lodepng_chunk_create
	.p2align	4, 0x90
_lodepng_chunk_create:                  ## @lodepng_chunk_create
Lfunc_begin41:
	.loc	1 2514 0 is_stmt 1      ## /Users/ericlei/Documents/ImageProcessing/sources/lodepng.c:2514:0
	.cfi_startproc
## BB#0:
	pushq	%rbp
Ltmp499:
	.cfi_def_cfa_offset 16
Ltmp500:
	.cfi_offset %rbp, -16
	movq	%rsp, %rbp
Ltmp501:
	.cfi_def_cfa_register %rbp
	subq	$80, %rsp
	movq	%rdi, -16(%rbp)
	movq	%rsi, -24(%rbp)
	movl	%edx, -28(%rbp)
	movq	%rcx, -40(%rbp)
	movq	%r8, -48(%rbp)
Ltmp502:
	.loc	1 2517 25 prologue_end  ## /Users/ericlei/Documents/ImageProcessing/sources/lodepng.c:2517:25
	movq	-24(%rbp), %rcx
	.loc	1 2517 24 is_stmt 0     ## /Users/ericlei/Documents/ImageProcessing/sources/lodepng.c:2517:24
	movq	(%rcx), %rcx
	.loc	1 2517 38               ## /Users/ericlei/Documents/ImageProcessing/sources/lodepng.c:2517:38
	movl	-28(%rbp), %edx
	movl	%edx, %esi
	.loc	1 2517 36               ## /Users/ericlei/Documents/ImageProcessing/sources/lodepng.c:2517:36
	addq	%rsi, %rcx
	.loc	1 2517 45               ## /Users/ericlei/Documents/ImageProcessing/sources/lodepng.c:2517:45
	addq	$12, %rcx
	.loc	1 2517 10               ## /Users/ericlei/Documents/ImageProcessing/sources/lodepng.c:2517:10
	movq	%rcx, -80(%rbp)
Ltmp503:
	.loc	1 2518 6 is_stmt 1      ## /Users/ericlei/Documents/ImageProcessing/sources/lodepng.c:2518:6
	movq	-80(%rbp), %rcx
	.loc	1 2518 19 is_stmt 0     ## /Users/ericlei/Documents/ImageProcessing/sources/lodepng.c:2518:19
	movl	-28(%rbp), %edx
	.loc	1 2518 26               ## /Users/ericlei/Documents/ImageProcessing/sources/lodepng.c:2518:26
	addl	$12, %edx
	.loc	1 2518 19               ## /Users/ericlei/Documents/ImageProcessing/sources/lodepng.c:2518:19
	movl	%edx, %edx
	movl	%edx, %esi
	.loc	1 2518 17               ## /Users/ericlei/Documents/ImageProcessing/sources/lodepng.c:2518:17
	cmpq	%rsi, %rcx
	.loc	1 2518 31               ## /Users/ericlei/Documents/ImageProcessing/sources/lodepng.c:2518:31
	jb	LBB41_2
## BB#1:
	.loc	1 2518 34 discriminator 1 ## /Users/ericlei/Documents/ImageProcessing/sources/lodepng.c:2518:34
	movq	-80(%rbp), %rax
	.loc	1 2518 49 discriminator 1 ## /Users/ericlei/Documents/ImageProcessing/sources/lodepng.c:2518:49
	movq	-24(%rbp), %rcx
	.loc	1 2518 45 discriminator 1 ## /Users/ericlei/Documents/ImageProcessing/sources/lodepng.c:2518:45
	cmpq	(%rcx), %rax
Ltmp504:
	.loc	1 2518 6 discriminator 1 ## /Users/ericlei/Documents/ImageProcessing/sources/lodepng.c:2518:6
	jae	LBB41_3
LBB41_2:
Ltmp505:
	.loc	1 2518 61 discriminator 2 ## /Users/ericlei/Documents/ImageProcessing/sources/lodepng.c:2518:61
	movl	$77, -4(%rbp)
	jmp	LBB41_10
Ltmp506:
LBB41_3:
	.loc	1 2519 49 is_stmt 1     ## /Users/ericlei/Documents/ImageProcessing/sources/lodepng.c:2519:49
	movq	-16(%rbp), %rax
	.loc	1 2519 48 is_stmt 0     ## /Users/ericlei/Documents/ImageProcessing/sources/lodepng.c:2519:48
	movq	(%rax), %rdi
	.loc	1 2519 54               ## /Users/ericlei/Documents/ImageProcessing/sources/lodepng.c:2519:54
	movq	-80(%rbp), %rsi
	.loc	1 2519 32               ## /Users/ericlei/Documents/ImageProcessing/sources/lodepng.c:2519:32
	callq	_lodepng_realloc
	.loc	1 2519 14               ## /Users/ericlei/Documents/ImageProcessing/sources/lodepng.c:2519:14
	movq	%rax, -72(%rbp)
Ltmp507:
	.loc	1 2520 7 is_stmt 1      ## /Users/ericlei/Documents/ImageProcessing/sources/lodepng.c:2520:7
	cmpq	$0, -72(%rbp)
Ltmp508:
	.loc	1 2520 6 is_stmt 0      ## /Users/ericlei/Documents/ImageProcessing/sources/lodepng.c:2520:6
	jne	LBB41_5
## BB#4:
Ltmp509:
	.loc	1 2520 19 discriminator 1 ## /Users/ericlei/Documents/ImageProcessing/sources/lodepng.c:2520:19
	movl	$83, -4(%rbp)
	jmp	LBB41_10
Ltmp510:
LBB41_5:
	.loc	1 2521 12 is_stmt 1     ## /Users/ericlei/Documents/ImageProcessing/sources/lodepng.c:2521:12
	movq	-72(%rbp), %rax
	.loc	1 2521 5 is_stmt 0      ## /Users/ericlei/Documents/ImageProcessing/sources/lodepng.c:2521:5
	movq	-16(%rbp), %rcx
	.loc	1 2521 10               ## /Users/ericlei/Documents/ImageProcessing/sources/lodepng.c:2521:10
	movq	%rax, (%rcx)
	.loc	1 2522 18 is_stmt 1     ## /Users/ericlei/Documents/ImageProcessing/sources/lodepng.c:2522:18
	movq	-80(%rbp), %rax
	.loc	1 2522 5 is_stmt 0      ## /Users/ericlei/Documents/ImageProcessing/sources/lodepng.c:2522:5
	movq	-24(%rbp), %rcx
	.loc	1 2522 16               ## /Users/ericlei/Documents/ImageProcessing/sources/lodepng.c:2522:16
	movq	%rax, (%rcx)
	.loc	1 2523 21 is_stmt 1     ## /Users/ericlei/Documents/ImageProcessing/sources/lodepng.c:2523:21
	movq	-24(%rbp), %rax
	.loc	1 2523 20 is_stmt 0     ## /Users/ericlei/Documents/ImageProcessing/sources/lodepng.c:2523:20
	movq	(%rax), %rax
	.loc	1 2523 34               ## /Users/ericlei/Documents/ImageProcessing/sources/lodepng.c:2523:34
	movl	-28(%rbp), %edx
	movl	%edx, %ecx
	.loc	1 2523 32               ## /Users/ericlei/Documents/ImageProcessing/sources/lodepng.c:2523:32
	subq	%rcx, %rax
	.loc	1 2523 41               ## /Users/ericlei/Documents/ImageProcessing/sources/lodepng.c:2523:41
	subq	$12, %rax
	.loc	1 2523 14               ## /Users/ericlei/Documents/ImageProcessing/sources/lodepng.c:2523:14
	movq	-16(%rbp), %rcx
	.loc	1 2523 12               ## /Users/ericlei/Documents/ImageProcessing/sources/lodepng.c:2523:12
	addq	(%rcx), %rax
	.loc	1 2523 9                ## /Users/ericlei/Documents/ImageProcessing/sources/lodepng.c:2523:9
	movq	%rax, -64(%rbp)
	.loc	1 2526 23 is_stmt 1     ## /Users/ericlei/Documents/ImageProcessing/sources/lodepng.c:2526:23
	movq	-64(%rbp), %rdi
	.loc	1 2526 40 is_stmt 0     ## /Users/ericlei/Documents/ImageProcessing/sources/lodepng.c:2526:40
	movl	-28(%rbp), %esi
	.loc	1 2526 3                ## /Users/ericlei/Documents/ImageProcessing/sources/lodepng.c:2526:3
	callq	_lodepng_set32bitInt
	.loc	1 2529 29 is_stmt 1     ## /Users/ericlei/Documents/ImageProcessing/sources/lodepng.c:2529:29
	movq	-40(%rbp), %rax
	movb	(%rax), %r8b
	.loc	1 2529 3 is_stmt 0      ## /Users/ericlei/Documents/ImageProcessing/sources/lodepng.c:2529:3
	movq	-64(%rbp), %rax
	.loc	1 2529 12               ## /Users/ericlei/Documents/ImageProcessing/sources/lodepng.c:2529:12
	movb	%r8b, 4(%rax)
	.loc	1 2530 29 is_stmt 1     ## /Users/ericlei/Documents/ImageProcessing/sources/lodepng.c:2530:29
	movq	-40(%rbp), %rax
	movb	1(%rax), %r8b
	.loc	1 2530 3 is_stmt 0      ## /Users/ericlei/Documents/ImageProcessing/sources/lodepng.c:2530:3
	movq	-64(%rbp), %rax
	.loc	1 2530 12               ## /Users/ericlei/Documents/ImageProcessing/sources/lodepng.c:2530:12
	movb	%r8b, 5(%rax)
	.loc	1 2531 29 is_stmt 1     ## /Users/ericlei/Documents/ImageProcessing/sources/lodepng.c:2531:29
	movq	-40(%rbp), %rax
	movb	2(%rax), %r8b
	.loc	1 2531 3 is_stmt 0      ## /Users/ericlei/Documents/ImageProcessing/sources/lodepng.c:2531:3
	movq	-64(%rbp), %rax
	.loc	1 2531 12               ## /Users/ericlei/Documents/ImageProcessing/sources/lodepng.c:2531:12
	movb	%r8b, 6(%rax)
	.loc	1 2532 29 is_stmt 1     ## /Users/ericlei/Documents/ImageProcessing/sources/lodepng.c:2532:29
	movq	-40(%rbp), %rax
	movb	3(%rax), %r8b
	.loc	1 2532 3 is_stmt 0      ## /Users/ericlei/Documents/ImageProcessing/sources/lodepng.c:2532:3
	movq	-64(%rbp), %rax
	.loc	1 2532 12               ## /Users/ericlei/Documents/ImageProcessing/sources/lodepng.c:2532:12
	movb	%r8b, 7(%rax)
Ltmp511:
	.loc	1 2535 9 is_stmt 1      ## /Users/ericlei/Documents/ImageProcessing/sources/lodepng.c:2535:9
	movl	$0, -52(%rbp)
LBB41_6:                                ## =>This Inner Loop Header: Depth=1
Ltmp512:
	.loc	1 2535 14 is_stmt 0 discriminator 1 ## /Users/ericlei/Documents/ImageProcessing/sources/lodepng.c:2535:14
	movl	-52(%rbp), %eax
	.loc	1 2535 16 discriminator 1 ## /Users/ericlei/Documents/ImageProcessing/sources/lodepng.c:2535:16
	cmpl	-28(%rbp), %eax
Ltmp513:
	.loc	1 2535 3 discriminator 1 ## /Users/ericlei/Documents/ImageProcessing/sources/lodepng.c:2535:3
	je	LBB41_9
## BB#7:                                ##   in Loop: Header=BB41_6 Depth=1
Ltmp514:
	.loc	1 2535 47 discriminator 2 ## /Users/ericlei/Documents/ImageProcessing/sources/lodepng.c:2535:47
	movl	-52(%rbp), %eax
	movl	%eax, %ecx
	movq	-48(%rbp), %rdx
	movb	(%rdx,%rcx), %sil
	.loc	1 2535 42 discriminator 2 ## /Users/ericlei/Documents/ImageProcessing/sources/lodepng.c:2535:42
	movl	-52(%rbp), %eax
	.loc	1 2535 40 discriminator 2 ## /Users/ericlei/Documents/ImageProcessing/sources/lodepng.c:2535:40
	addl	$8, %eax
	.loc	1 2535 32 discriminator 2 ## /Users/ericlei/Documents/ImageProcessing/sources/lodepng.c:2535:32
	movl	%eax, %eax
	movl	%eax, %ecx
	movq	-64(%rbp), %rdx
	.loc	1 2535 45 discriminator 2 ## /Users/ericlei/Documents/ImageProcessing/sources/lodepng.c:2535:45
	movb	%sil, (%rdx,%rcx)
## BB#8:                                ##   in Loop: Header=BB41_6 Depth=1
	.loc	1 2535 27 discriminator 3 ## /Users/ericlei/Documents/ImageProcessing/sources/lodepng.c:2535:27
	movl	-52(%rbp), %eax
	addl	$1, %eax
	movl	%eax, -52(%rbp)
	.loc	1 2535 3 discriminator 3 ## /Users/ericlei/Documents/ImageProcessing/sources/lodepng.c:2535:3
	jmp	LBB41_6
Ltmp515:
LBB41_9:
	.loc	1 2538 30 is_stmt 1     ## /Users/ericlei/Documents/ImageProcessing/sources/lodepng.c:2538:30
	movq	-64(%rbp), %rdi
	.loc	1 2538 3 is_stmt 0      ## /Users/ericlei/Documents/ImageProcessing/sources/lodepng.c:2538:3
	callq	_lodepng_chunk_generate_crc
	.loc	1 2540 3 is_stmt 1      ## /Users/ericlei/Documents/ImageProcessing/sources/lodepng.c:2540:3
	movl	$0, -4(%rbp)
LBB41_10:
	.loc	1 2541 1                ## /Users/ericlei/Documents/ImageProcessing/sources/lodepng.c:2541:1
	movl	-4(%rbp), %eax
	addq	$80, %rsp
	popq	%rbp
	retq
Ltmp516:
Lfunc_end41:
	.cfi_endproc

	.globl	_lodepng_color_mode_init
	.p2align	4, 0x90
_lodepng_color_mode_init:               ## @lodepng_color_mode_init
Lfunc_begin42:
	.loc	1 2584 0                ## /Users/ericlei/Documents/ImageProcessing/sources/lodepng.c:2584:0
	.cfi_startproc
## BB#0:
	pushq	%rbp
Ltmp517:
	.cfi_def_cfa_offset 16
Ltmp518:
	.cfi_offset %rbp, -16
	movq	%rsp, %rbp
Ltmp519:
	.cfi_def_cfa_register %rbp
	movq	%rdi, -8(%rbp)
Ltmp520:
	.loc	1 2585 3 prologue_end   ## /Users/ericlei/Documents/ImageProcessing/sources/lodepng.c:2585:3
	movq	-8(%rbp), %rdi
	.loc	1 2585 21 is_stmt 0     ## /Users/ericlei/Documents/ImageProcessing/sources/lodepng.c:2585:21
	movl	$0, 24(%rdi)
	.loc	1 2586 31 is_stmt 1     ## /Users/ericlei/Documents/ImageProcessing/sources/lodepng.c:2586:31
	movq	-8(%rbp), %rdi
	.loc	1 2586 43 is_stmt 0     ## /Users/ericlei/Documents/ImageProcessing/sources/lodepng.c:2586:43
	movl	$0, 36(%rdi)
	.loc	1 2586 17               ## /Users/ericlei/Documents/ImageProcessing/sources/lodepng.c:2586:17
	movq	-8(%rbp), %rdi
	.loc	1 2586 29               ## /Users/ericlei/Documents/ImageProcessing/sources/lodepng.c:2586:29
	movl	$0, 32(%rdi)
	.loc	1 2586 3                ## /Users/ericlei/Documents/ImageProcessing/sources/lodepng.c:2586:3
	movq	-8(%rbp), %rdi
	.loc	1 2586 15               ## /Users/ericlei/Documents/ImageProcessing/sources/lodepng.c:2586:15
	movl	$0, 28(%rdi)
	.loc	1 2587 3 is_stmt 1      ## /Users/ericlei/Documents/ImageProcessing/sources/lodepng.c:2587:3
	movq	-8(%rbp), %rdi
	.loc	1 2587 19 is_stmt 0     ## /Users/ericlei/Documents/ImageProcessing/sources/lodepng.c:2587:19
	movl	$6, (%rdi)
	.loc	1 2588 3 is_stmt 1      ## /Users/ericlei/Documents/ImageProcessing/sources/lodepng.c:2588:3
	movq	-8(%rbp), %rdi
	.loc	1 2588 18 is_stmt 0     ## /Users/ericlei/Documents/ImageProcessing/sources/lodepng.c:2588:18
	movl	$8, 4(%rdi)
	.loc	1 2589 3 is_stmt 1      ## /Users/ericlei/Documents/ImageProcessing/sources/lodepng.c:2589:3
	movq	-8(%rbp), %rdi
	.loc	1 2589 17 is_stmt 0     ## /Users/ericlei/Documents/ImageProcessing/sources/lodepng.c:2589:17
	movq	$0, 8(%rdi)
	.loc	1 2590 3 is_stmt 1      ## /Users/ericlei/Documents/ImageProcessing/sources/lodepng.c:2590:3
	movq	-8(%rbp), %rdi
	.loc	1 2590 21 is_stmt 0     ## /Users/ericlei/Documents/ImageProcessing/sources/lodepng.c:2590:21
	movq	$0, 16(%rdi)
	.loc	1 2591 1 is_stmt 1      ## /Users/ericlei/Documents/ImageProcessing/sources/lodepng.c:2591:1
	popq	%rbp
	retq
Ltmp521:
Lfunc_end42:
	.cfi_endproc

	.globl	_lodepng_color_mode_cleanup
	.p2align	4, 0x90
_lodepng_color_mode_cleanup:            ## @lodepng_color_mode_cleanup
Lfunc_begin43:
	.loc	1 2594 0                ## /Users/ericlei/Documents/ImageProcessing/sources/lodepng.c:2594:0
	.cfi_startproc
## BB#0:
	pushq	%rbp
Ltmp522:
	.cfi_def_cfa_offset 16
Ltmp523:
	.cfi_offset %rbp, -16
	movq	%rsp, %rbp
Ltmp524:
	.cfi_def_cfa_register %rbp
	subq	$16, %rsp
	movq	%rdi, -8(%rbp)
Ltmp525:
	.loc	1 2595 25 prologue_end  ## /Users/ericlei/Documents/ImageProcessing/sources/lodepng.c:2595:25
	movq	-8(%rbp), %rdi
	.loc	1 2595 3 is_stmt 0      ## /Users/ericlei/Documents/ImageProcessing/sources/lodepng.c:2595:3
	callq	_lodepng_palette_clear
	.loc	1 2596 1 is_stmt 1      ## /Users/ericlei/Documents/ImageProcessing/sources/lodepng.c:2596:1
	addq	$16, %rsp
	popq	%rbp
	retq
Ltmp526:
Lfunc_end43:
	.cfi_endproc

	.globl	_lodepng_palette_clear
	.p2align	4, 0x90
_lodepng_palette_clear:                 ## @lodepng_palette_clear
Lfunc_begin44:
	.loc	1 2638 0                ## /Users/ericlei/Documents/ImageProcessing/sources/lodepng.c:2638:0
	.cfi_startproc
## BB#0:
	pushq	%rbp
Ltmp527:
	.cfi_def_cfa_offset 16
Ltmp528:
	.cfi_offset %rbp, -16
	movq	%rsp, %rbp
Ltmp529:
	.cfi_def_cfa_register %rbp
	subq	$16, %rsp
	movq	%rdi, -8(%rbp)
Ltmp530:
	.loc	1 2639 6 prologue_end   ## /Users/ericlei/Documents/ImageProcessing/sources/lodepng.c:2639:6
	movq	-8(%rbp), %rdi
	cmpq	$0, 8(%rdi)
Ltmp531:
	.loc	1 2639 6 is_stmt 0      ## /Users/ericlei/Documents/ImageProcessing/sources/lodepng.c:2639:6
	je	LBB44_2
## BB#1:
Ltmp532:
	.loc	1 2639 34 discriminator 1 ## /Users/ericlei/Documents/ImageProcessing/sources/lodepng.c:2639:34
	movq	-8(%rbp), %rax
	.loc	1 2639 40 discriminator 1 ## /Users/ericlei/Documents/ImageProcessing/sources/lodepng.c:2639:40
	movq	8(%rax), %rdi
	.loc	1 2639 21 discriminator 1 ## /Users/ericlei/Documents/ImageProcessing/sources/lodepng.c:2639:21
	callq	_lodepng_free
Ltmp533:
LBB44_2:
	.loc	1 2640 3 is_stmt 1      ## /Users/ericlei/Documents/ImageProcessing/sources/lodepng.c:2640:3
	movq	-8(%rbp), %rax
	.loc	1 2640 17 is_stmt 0     ## /Users/ericlei/Documents/ImageProcessing/sources/lodepng.c:2640:17
	movq	$0, 8(%rax)
	.loc	1 2641 3 is_stmt 1      ## /Users/ericlei/Documents/ImageProcessing/sources/lodepng.c:2641:3
	movq	-8(%rbp), %rax
	.loc	1 2641 21 is_stmt 0     ## /Users/ericlei/Documents/ImageProcessing/sources/lodepng.c:2641:21
	movq	$0, 16(%rax)
	.loc	1 2642 1 is_stmt 1      ## /Users/ericlei/Documents/ImageProcessing/sources/lodepng.c:2642:1
	addq	$16, %rsp
	popq	%rbp
	retq
Ltmp534:
Lfunc_end44:
	.cfi_endproc

	.globl	_lodepng_color_mode_copy
	.p2align	4, 0x90
_lodepng_color_mode_copy:               ## @lodepng_color_mode_copy
Lfunc_begin45:
	.loc	1 2599 0                ## /Users/ericlei/Documents/ImageProcessing/sources/lodepng.c:2599:0
	.cfi_startproc
## BB#0:
	pushq	%rbp
Ltmp535:
	.cfi_def_cfa_offset 16
Ltmp536:
	.cfi_offset %rbp, -16
	movq	%rsp, %rbp
Ltmp537:
	.cfi_def_cfa_register %rbp
	subq	$48, %rsp
	movq	%rdi, -16(%rbp)
	movq	%rsi, -24(%rbp)
Ltmp538:
	.loc	1 2601 30 prologue_end  ## /Users/ericlei/Documents/ImageProcessing/sources/lodepng.c:2601:30
	movq	-16(%rbp), %rdi
	.loc	1 2601 3 is_stmt 0      ## /Users/ericlei/Documents/ImageProcessing/sources/lodepng.c:2601:3
	callq	_lodepng_color_mode_cleanup
	movl	$40, %eax
	movl	%eax, %edx
	.loc	1 2602 4 is_stmt 1      ## /Users/ericlei/Documents/ImageProcessing/sources/lodepng.c:2602:4
	movq	-16(%rbp), %rsi
	.loc	1 2602 12 is_stmt 0     ## /Users/ericlei/Documents/ImageProcessing/sources/lodepng.c:2602:12
	movq	-24(%rbp), %rdi
	.loc	1 2602 11               ## /Users/ericlei/Documents/ImageProcessing/sources/lodepng.c:2602:11
	movq	%rdi, -40(%rbp)         ## 8-byte Spill
	movq	%rsi, %rdi
	movq	-40(%rbp), %rsi         ## 8-byte Reload
	callq	_memcpy
Ltmp539:
	.loc	1 2603 6 is_stmt 1      ## /Users/ericlei/Documents/ImageProcessing/sources/lodepng.c:2603:6
	movq	-24(%rbp), %rdx
	cmpq	$0, 8(%rdx)
Ltmp540:
	.loc	1 2603 6 is_stmt 0      ## /Users/ericlei/Documents/ImageProcessing/sources/lodepng.c:2603:6
	je	LBB45_9
## BB#1:
	movl	$1024, %eax             ## imm = 0x400
	movl	%eax, %edi
Ltmp541:
	.loc	1 2605 37 is_stmt 1     ## /Users/ericlei/Documents/ImageProcessing/sources/lodepng.c:2605:37
	callq	_lodepng_malloc
	.loc	1 2605 5 is_stmt 0      ## /Users/ericlei/Documents/ImageProcessing/sources/lodepng.c:2605:5
	movq	-16(%rbp), %rdi
	.loc	1 2605 19               ## /Users/ericlei/Documents/ImageProcessing/sources/lodepng.c:2605:19
	movq	%rax, 8(%rdi)
Ltmp542:
	.loc	1 2606 9 is_stmt 1      ## /Users/ericlei/Documents/ImageProcessing/sources/lodepng.c:2606:9
	movq	-16(%rbp), %rax
	cmpq	$0, 8(%rax)
	.loc	1 2606 23 is_stmt 0     ## /Users/ericlei/Documents/ImageProcessing/sources/lodepng.c:2606:23
	jne	LBB45_4
## BB#2:
	.loc	1 2606 26 discriminator 1 ## /Users/ericlei/Documents/ImageProcessing/sources/lodepng.c:2606:26
	movq	-24(%rbp), %rax
	cmpq	$0, 16(%rax)
Ltmp543:
	.loc	1 2606 8 discriminator 1 ## /Users/ericlei/Documents/ImageProcessing/sources/lodepng.c:2606:8
	je	LBB45_4
## BB#3:
Ltmp544:
	.loc	1 2606 47 discriminator 2 ## /Users/ericlei/Documents/ImageProcessing/sources/lodepng.c:2606:47
	movl	$83, -4(%rbp)
	jmp	LBB45_10
Ltmp545:
LBB45_4:
	.loc	1 2607 11 is_stmt 1     ## /Users/ericlei/Documents/ImageProcessing/sources/lodepng.c:2607:11
	movq	$0, -32(%rbp)
LBB45_5:                                ## =>This Inner Loop Header: Depth=1
Ltmp546:
	.loc	1 2607 16 is_stmt 0 discriminator 1 ## /Users/ericlei/Documents/ImageProcessing/sources/lodepng.c:2607:16
	movq	-32(%rbp), %rax
	.loc	1 2607 21 discriminator 1 ## /Users/ericlei/Documents/ImageProcessing/sources/lodepng.c:2607:21
	movq	-24(%rbp), %rcx
	.loc	1 2607 29 discriminator 1 ## /Users/ericlei/Documents/ImageProcessing/sources/lodepng.c:2607:29
	movq	16(%rcx), %rcx
	.loc	1 2607 41 discriminator 1 ## /Users/ericlei/Documents/ImageProcessing/sources/lodepng.c:2607:41
	shlq	$2, %rcx
	.loc	1 2607 18 discriminator 1 ## /Users/ericlei/Documents/ImageProcessing/sources/lodepng.c:2607:18
	cmpq	%rcx, %rax
Ltmp547:
	.loc	1 2607 5 discriminator 1 ## /Users/ericlei/Documents/ImageProcessing/sources/lodepng.c:2607:5
	je	LBB45_8
## BB#6:                                ##   in Loop: Header=BB45_5 Depth=1
Ltmp548:
	.loc	1 2607 86 discriminator 2 ## /Users/ericlei/Documents/ImageProcessing/sources/lodepng.c:2607:86
	movq	-32(%rbp), %rax
	.loc	1 2607 70 discriminator 2 ## /Users/ericlei/Documents/ImageProcessing/sources/lodepng.c:2607:70
	movq	-24(%rbp), %rcx
	.loc	1 2607 78 discriminator 2 ## /Users/ericlei/Documents/ImageProcessing/sources/lodepng.c:2607:78
	movq	8(%rcx), %rcx
	.loc	1 2607 70 discriminator 2 ## /Users/ericlei/Documents/ImageProcessing/sources/lodepng.c:2607:70
	movb	(%rcx,%rax), %dl
	.loc	1 2607 65 discriminator 2 ## /Users/ericlei/Documents/ImageProcessing/sources/lodepng.c:2607:65
	movq	-32(%rbp), %rax
	.loc	1 2607 51 discriminator 2 ## /Users/ericlei/Documents/ImageProcessing/sources/lodepng.c:2607:51
	movq	-16(%rbp), %rcx
	.loc	1 2607 57 discriminator 2 ## /Users/ericlei/Documents/ImageProcessing/sources/lodepng.c:2607:57
	movq	8(%rcx), %rcx
	.loc	1 2607 68 discriminator 2 ## /Users/ericlei/Documents/ImageProcessing/sources/lodepng.c:2607:68
	movb	%dl, (%rcx,%rax)
## BB#7:                                ##   in Loop: Header=BB45_5 Depth=1
	.loc	1 2607 46 discriminator 3 ## /Users/ericlei/Documents/ImageProcessing/sources/lodepng.c:2607:46
	movq	-32(%rbp), %rax
	addq	$1, %rax
	movq	%rax, -32(%rbp)
	.loc	1 2607 5 discriminator 3 ## /Users/ericlei/Documents/ImageProcessing/sources/lodepng.c:2607:5
	jmp	LBB45_5
Ltmp549:
LBB45_8:
	.loc	1 2608 3 is_stmt 1      ## /Users/ericlei/Documents/ImageProcessing/sources/lodepng.c:2608:3
	jmp	LBB45_9
Ltmp550:
LBB45_9:
	.loc	1 2609 3                ## /Users/ericlei/Documents/ImageProcessing/sources/lodepng.c:2609:3
	movl	$0, -4(%rbp)
LBB45_10:
	.loc	1 2610 1                ## /Users/ericlei/Documents/ImageProcessing/sources/lodepng.c:2610:1
	movl	-4(%rbp), %eax
	addq	$48, %rsp
	popq	%rbp
	retq
Ltmp551:
Lfunc_end45:
	.cfi_endproc

	.globl	_lodepng_palette_add
	.p2align	4, 0x90
_lodepng_palette_add:                   ## @lodepng_palette_add
Lfunc_begin46:
	.loc	1 2646 0                ## /Users/ericlei/Documents/ImageProcessing/sources/lodepng.c:2646:0
	.cfi_startproc
## BB#0:
	pushq	%rbp
Ltmp552:
	.cfi_def_cfa_offset 16
Ltmp553:
	.cfi_offset %rbp, -16
	movq	%rsp, %rbp
Ltmp554:
	.cfi_def_cfa_register %rbp
	subq	$32, %rsp
	movb	%r8b, %al
	movb	%cl, %r9b
	movb	%dl, %r10b
	movb	%sil, %r11b
	movq	%rdi, -16(%rbp)
	movb	%r11b, -17(%rbp)
	movb	%r10b, -18(%rbp)
	movb	%r9b, -19(%rbp)
	movb	%al, -20(%rbp)
Ltmp555:
	.loc	1 2650 7 prologue_end   ## /Users/ericlei/Documents/ImageProcessing/sources/lodepng.c:2650:7
	movq	-16(%rbp), %rdi
	cmpq	$0, 8(%rdi)
Ltmp556:
	.loc	1 2650 6 is_stmt 0      ## /Users/ericlei/Documents/ImageProcessing/sources/lodepng.c:2650:6
	jne	LBB46_5
## BB#1:
	movl	$1024, %eax             ## imm = 0x400
	movl	%eax, %esi
Ltmp557:
	.loc	1 2653 44 is_stmt 1     ## /Users/ericlei/Documents/ImageProcessing/sources/lodepng.c:2653:44
	movq	-16(%rbp), %rcx
	.loc	1 2653 50 is_stmt 0     ## /Users/ericlei/Documents/ImageProcessing/sources/lodepng.c:2653:50
	movq	8(%rcx), %rdi
	.loc	1 2653 28               ## /Users/ericlei/Documents/ImageProcessing/sources/lodepng.c:2653:28
	callq	_lodepng_realloc
	.loc	1 2653 10               ## /Users/ericlei/Documents/ImageProcessing/sources/lodepng.c:2653:10
	movq	%rax, -32(%rbp)
Ltmp558:
	.loc	1 2654 9 is_stmt 1      ## /Users/ericlei/Documents/ImageProcessing/sources/lodepng.c:2654:9
	cmpq	$0, -32(%rbp)
Ltmp559:
	.loc	1 2654 8 is_stmt 0      ## /Users/ericlei/Documents/ImageProcessing/sources/lodepng.c:2654:8
	jne	LBB46_3
## BB#2:
Ltmp560:
	.loc	1 2654 15 discriminator 1 ## /Users/ericlei/Documents/ImageProcessing/sources/lodepng.c:2654:15
	movl	$83, -4(%rbp)
	jmp	LBB46_6
LBB46_3:
	.loc	1 2655 26 is_stmt 1     ## /Users/ericlei/Documents/ImageProcessing/sources/lodepng.c:2655:26
	movq	-32(%rbp), %rax
	.loc	1 2655 10 is_stmt 0     ## /Users/ericlei/Documents/ImageProcessing/sources/lodepng.c:2655:10
	movq	-16(%rbp), %rcx
	.loc	1 2655 24               ## /Users/ericlei/Documents/ImageProcessing/sources/lodepng.c:2655:24
	movq	%rax, 8(%rcx)
Ltmp561:
## BB#4:
	.loc	1 2656 3 is_stmt 1      ## /Users/ericlei/Documents/ImageProcessing/sources/lodepng.c:2656:3
	jmp	LBB46_5
Ltmp562:
LBB46_5:
	.loc	1 2657 46               ## /Users/ericlei/Documents/ImageProcessing/sources/lodepng.c:2657:46
	movb	-17(%rbp), %al
	.loc	1 2657 21 is_stmt 0     ## /Users/ericlei/Documents/ImageProcessing/sources/lodepng.c:2657:21
	movq	-16(%rbp), %rcx
	.loc	1 2657 27               ## /Users/ericlei/Documents/ImageProcessing/sources/lodepng.c:2657:27
	movq	16(%rcx), %rcx
	.loc	1 2657 19               ## /Users/ericlei/Documents/ImageProcessing/sources/lodepng.c:2657:19
	shlq	$2, %rcx
	.loc	1 2657 3                ## /Users/ericlei/Documents/ImageProcessing/sources/lodepng.c:2657:3
	movq	-16(%rbp), %rdx
	.loc	1 2657 9                ## /Users/ericlei/Documents/ImageProcessing/sources/lodepng.c:2657:9
	movq	8(%rdx), %rdx
	.loc	1 2657 44               ## /Users/ericlei/Documents/ImageProcessing/sources/lodepng.c:2657:44
	movb	%al, (%rdx,%rcx)
	.loc	1 2658 46 is_stmt 1     ## /Users/ericlei/Documents/ImageProcessing/sources/lodepng.c:2658:46
	movb	-18(%rbp), %al
	.loc	1 2658 21 is_stmt 0     ## /Users/ericlei/Documents/ImageProcessing/sources/lodepng.c:2658:21
	movq	-16(%rbp), %rcx
	.loc	1 2658 27               ## /Users/ericlei/Documents/ImageProcessing/sources/lodepng.c:2658:27
	movq	16(%rcx), %rcx
	.loc	1 2658 19               ## /Users/ericlei/Documents/ImageProcessing/sources/lodepng.c:2658:19
	shlq	$2, %rcx
	.loc	1 2658 3                ## /Users/ericlei/Documents/ImageProcessing/sources/lodepng.c:2658:3
	movq	-16(%rbp), %rdx
	.loc	1 2658 9                ## /Users/ericlei/Documents/ImageProcessing/sources/lodepng.c:2658:9
	movq	8(%rdx), %rdx
	.loc	1 2658 44               ## /Users/ericlei/Documents/ImageProcessing/sources/lodepng.c:2658:44
	movb	%al, 1(%rdx,%rcx)
	.loc	1 2659 46 is_stmt 1     ## /Users/ericlei/Documents/ImageProcessing/sources/lodepng.c:2659:46
	movb	-19(%rbp), %al
	.loc	1 2659 21 is_stmt 0     ## /Users/ericlei/Documents/ImageProcessing/sources/lodepng.c:2659:21
	movq	-16(%rbp), %rcx
	.loc	1 2659 27               ## /Users/ericlei/Documents/ImageProcessing/sources/lodepng.c:2659:27
	movq	16(%rcx), %rcx
	.loc	1 2659 19               ## /Users/ericlei/Documents/ImageProcessing/sources/lodepng.c:2659:19
	shlq	$2, %rcx
	.loc	1 2659 3                ## /Users/ericlei/Documents/ImageProcessing/sources/lodepng.c:2659:3
	movq	-16(%rbp), %rdx
	.loc	1 2659 9                ## /Users/ericlei/Documents/ImageProcessing/sources/lodepng.c:2659:9
	movq	8(%rdx), %rdx
	.loc	1 2659 44               ## /Users/ericlei/Documents/ImageProcessing/sources/lodepng.c:2659:44
	movb	%al, 2(%rdx,%rcx)
	.loc	1 2660 46 is_stmt 1     ## /Users/ericlei/Documents/ImageProcessing/sources/lodepng.c:2660:46
	movb	-20(%rbp), %al
	.loc	1 2660 21 is_stmt 0     ## /Users/ericlei/Documents/ImageProcessing/sources/lodepng.c:2660:21
	movq	-16(%rbp), %rcx
	.loc	1 2660 27               ## /Users/ericlei/Documents/ImageProcessing/sources/lodepng.c:2660:27
	movq	16(%rcx), %rcx
	.loc	1 2660 19               ## /Users/ericlei/Documents/ImageProcessing/sources/lodepng.c:2660:19
	shlq	$2, %rcx
	.loc	1 2660 3                ## /Users/ericlei/Documents/ImageProcessing/sources/lodepng.c:2660:3
	movq	-16(%rbp), %rdx
	.loc	1 2660 9                ## /Users/ericlei/Documents/ImageProcessing/sources/lodepng.c:2660:9
	movq	8(%rdx), %rdx
	.loc	1 2660 44               ## /Users/ericlei/Documents/ImageProcessing/sources/lodepng.c:2660:44
	movb	%al, 3(%rdx,%rcx)
	.loc	1 2661 5 is_stmt 1      ## /Users/ericlei/Documents/ImageProcessing/sources/lodepng.c:2661:5
	movq	-16(%rbp), %rcx
	.loc	1 2661 3 is_stmt 0      ## /Users/ericlei/Documents/ImageProcessing/sources/lodepng.c:2661:3
	movq	16(%rcx), %rdx
	addq	$1, %rdx
	movq	%rdx, 16(%rcx)
	.loc	1 2662 3 is_stmt 1      ## /Users/ericlei/Documents/ImageProcessing/sources/lodepng.c:2662:3
	movl	$0, -4(%rbp)
LBB46_6:
	.loc	1 2663 1                ## /Users/ericlei/Documents/ImageProcessing/sources/lodepng.c:2663:1
	movl	-4(%rbp), %eax
	addq	$32, %rsp
	popq	%rbp
	retq
Ltmp563:
Lfunc_end46:
	.cfi_endproc

	.globl	_lodepng_get_bpp
	.p2align	4, 0x90
_lodepng_get_bpp:                       ## @lodepng_get_bpp
Lfunc_begin47:
	.loc	1 2666 0                ## /Users/ericlei/Documents/ImageProcessing/sources/lodepng.c:2666:0
	.cfi_startproc
## BB#0:
	pushq	%rbp
Ltmp564:
	.cfi_def_cfa_offset 16
Ltmp565:
	.cfi_offset %rbp, -16
	movq	%rsp, %rbp
Ltmp566:
	.cfi_def_cfa_register %rbp
	subq	$16, %rsp
	movq	%rdi, -8(%rbp)
Ltmp567:
	.loc	1 2668 30 prologue_end  ## /Users/ericlei/Documents/ImageProcessing/sources/lodepng.c:2668:30
	movq	-8(%rbp), %rdi
	.loc	1 2668 36 is_stmt 0     ## /Users/ericlei/Documents/ImageProcessing/sources/lodepng.c:2668:36
	movl	(%rdi), %edi
	.loc	1 2668 47               ## /Users/ericlei/Documents/ImageProcessing/sources/lodepng.c:2668:47
	movq	-8(%rbp), %rax
	.loc	1 2668 53               ## /Users/ericlei/Documents/ImageProcessing/sources/lodepng.c:2668:53
	movl	4(%rax), %esi
	.loc	1 2668 10               ## /Users/ericlei/Documents/ImageProcessing/sources/lodepng.c:2668:10
	callq	_lodepng_get_bpp_lct
	.loc	1 2668 3                ## /Users/ericlei/Documents/ImageProcessing/sources/lodepng.c:2668:3
	addq	$16, %rsp
	popq	%rbp
	retq
Ltmp568:
Lfunc_end47:
	.cfi_endproc

	.p2align	4, 0x90
_lodepng_get_bpp_lct:                   ## @lodepng_get_bpp_lct
Lfunc_begin48:
	.loc	1 2576 0 is_stmt 1      ## /Users/ericlei/Documents/ImageProcessing/sources/lodepng.c:2576:0
	.cfi_startproc
## BB#0:
	pushq	%rbp
Ltmp569:
	.cfi_def_cfa_offset 16
Ltmp570:
	.cfi_offset %rbp, -16
	movq	%rsp, %rbp
Ltmp571:
	.cfi_def_cfa_register %rbp
	subq	$16, %rsp
	movl	%edi, -4(%rbp)
	movl	%esi, -8(%rbp)
Ltmp572:
	.loc	1 2578 30 prologue_end  ## /Users/ericlei/Documents/ImageProcessing/sources/lodepng.c:2578:30
	movl	-4(%rbp), %edi
	.loc	1 2578 10 is_stmt 0     ## /Users/ericlei/Documents/ImageProcessing/sources/lodepng.c:2578:10
	callq	_getNumColorChannels
	.loc	1 2578 41               ## /Users/ericlei/Documents/ImageProcessing/sources/lodepng.c:2578:41
	imull	-8(%rbp), %eax
	.loc	1 2578 3                ## /Users/ericlei/Documents/ImageProcessing/sources/lodepng.c:2578:3
	addq	$16, %rsp
	popq	%rbp
	retq
Ltmp573:
Lfunc_end48:
	.cfi_endproc

	.globl	_lodepng_get_channels
	.p2align	4, 0x90
_lodepng_get_channels:                  ## @lodepng_get_channels
Lfunc_begin49:
	.loc	1 2672 0 is_stmt 1      ## /Users/ericlei/Documents/ImageProcessing/sources/lodepng.c:2672:0
	.cfi_startproc
## BB#0:
	pushq	%rbp
Ltmp574:
	.cfi_def_cfa_offset 16
Ltmp575:
	.cfi_offset %rbp, -16
	movq	%rsp, %rbp
Ltmp576:
	.cfi_def_cfa_register %rbp
	subq	$16, %rsp
	movq	%rdi, -8(%rbp)
Ltmp577:
	.loc	1 2673 30 prologue_end  ## /Users/ericlei/Documents/ImageProcessing/sources/lodepng.c:2673:30
	movq	-8(%rbp), %rdi
	.loc	1 2673 36 is_stmt 0     ## /Users/ericlei/Documents/ImageProcessing/sources/lodepng.c:2673:36
	movl	(%rdi), %edi
	.loc	1 2673 10               ## /Users/ericlei/Documents/ImageProcessing/sources/lodepng.c:2673:10
	callq	_getNumColorChannels
	.loc	1 2673 3                ## /Users/ericlei/Documents/ImageProcessing/sources/lodepng.c:2673:3
	addq	$16, %rsp
	popq	%rbp
	retq
Ltmp578:
Lfunc_end49:
	.cfi_endproc

	.p2align	4, 0x90
_getNumColorChannels:                   ## @getNumColorChannels
Lfunc_begin50:
	.loc	1 2563 0 is_stmt 1      ## /Users/ericlei/Documents/ImageProcessing/sources/lodepng.c:2563:0
	.cfi_startproc
## BB#0:
	pushq	%rbp
Ltmp579:
	.cfi_def_cfa_offset 16
Ltmp580:
	.cfi_offset %rbp, -16
	movq	%rsp, %rbp
Ltmp581:
	.cfi_def_cfa_register %rbp
	##DEBUG_VALUE: getNumColorChannels:colortype <- [%RBP+-8]
	movl	%edi, -8(%rbp)
Ltmp582:
	.loc	1 2564 3 prologue_end   ## /Users/ericlei/Documents/ImageProcessing/sources/lodepng.c:2564:3
	movl	-8(%rbp), %edi
	movl	%edi, %eax
	.loc	1 2564 10 is_stmt 0     ## /Users/ericlei/Documents/ImageProcessing/sources/lodepng.c:2564:10
	movq	%rax, %rcx
	subq	$6, %rcx
	.loc	1 2564 3                ## /Users/ericlei/Documents/ImageProcessing/sources/lodepng.c:2564:3
	movq	%rax, -16(%rbp)         ## 8-byte Spill
	movq	%rcx, -24(%rbp)         ## 8-byte Spill
	ja	LBB50_6
## BB#8:
	##DEBUG_VALUE: getNumColorChannels:colortype <- [%RBP+-8]
	leaq	LJTI50_0(%rip), %rax
	movq	-16(%rbp), %rcx         ## 8-byte Reload
	movslq	(%rax,%rcx,4), %rdx
	addq	%rax, %rdx
	jmpq	*%rdx
LBB50_1:
	##DEBUG_VALUE: getNumColorChannels:colortype <- [%RBP+-8]
Ltmp583:
	.loc	1 2566 13 is_stmt 1     ## /Users/ericlei/Documents/ImageProcessing/sources/lodepng.c:2566:13
	movl	$1, -4(%rbp)
	jmp	LBB50_7
LBB50_2:
	##DEBUG_VALUE: getNumColorChannels:colortype <- [%RBP+-8]
	.loc	1 2567 13               ## /Users/ericlei/Documents/ImageProcessing/sources/lodepng.c:2567:13
	movl	$3, -4(%rbp)
	jmp	LBB50_7
LBB50_3:
	##DEBUG_VALUE: getNumColorChannels:colortype <- [%RBP+-8]
	.loc	1 2568 13               ## /Users/ericlei/Documents/ImageProcessing/sources/lodepng.c:2568:13
	movl	$1, -4(%rbp)
	jmp	LBB50_7
LBB50_4:
	##DEBUG_VALUE: getNumColorChannels:colortype <- [%RBP+-8]
	.loc	1 2569 13               ## /Users/ericlei/Documents/ImageProcessing/sources/lodepng.c:2569:13
	movl	$2, -4(%rbp)
	jmp	LBB50_7
LBB50_5:
	##DEBUG_VALUE: getNumColorChannels:colortype <- [%RBP+-8]
	.loc	1 2570 13               ## /Users/ericlei/Documents/ImageProcessing/sources/lodepng.c:2570:13
	movl	$4, -4(%rbp)
	jmp	LBB50_7
Ltmp584:
LBB50_6:
	.loc	1 2572 3                ## /Users/ericlei/Documents/ImageProcessing/sources/lodepng.c:2572:3
	movl	$0, -4(%rbp)
LBB50_7:
	.loc	1 2573 1                ## /Users/ericlei/Documents/ImageProcessing/sources/lodepng.c:2573:1
	movl	-4(%rbp), %eax
	popq	%rbp
	retq
Ltmp585:
Lfunc_end50:
	.cfi_endproc
	.p2align	2, 0x90
	.data_region jt32
L50_0_set_1 = LBB50_1-LJTI50_0
L50_0_set_6 = LBB50_6-LJTI50_0
L50_0_set_2 = LBB50_2-LJTI50_0
L50_0_set_3 = LBB50_3-LJTI50_0
L50_0_set_4 = LBB50_4-LJTI50_0
L50_0_set_5 = LBB50_5-LJTI50_0
LJTI50_0:
	.long	L50_0_set_1
	.long	L50_0_set_6
	.long	L50_0_set_2
	.long	L50_0_set_3
	.long	L50_0_set_4
	.long	L50_0_set_6
	.long	L50_0_set_5
	.end_data_region

	.globl	_lodepng_is_greyscale_type
	.p2align	4, 0x90
_lodepng_is_greyscale_type:             ## @lodepng_is_greyscale_type
Lfunc_begin51:
	.loc	1 2677 0                ## /Users/ericlei/Documents/ImageProcessing/sources/lodepng.c:2677:0
	.cfi_startproc
## BB#0:
	pushq	%rbp
Ltmp586:
	.cfi_def_cfa_offset 16
Ltmp587:
	.cfi_offset %rbp, -16
	movq	%rsp, %rbp
Ltmp588:
	.cfi_def_cfa_register %rbp
	movb	$1, %al
	movq	%rdi, -8(%rbp)
Ltmp589:
	.loc	1 2678 10 prologue_end  ## /Users/ericlei/Documents/ImageProcessing/sources/lodepng.c:2678:10
	movq	-8(%rbp), %rdi
	.loc	1 2678 26 is_stmt 0     ## /Users/ericlei/Documents/ImageProcessing/sources/lodepng.c:2678:26
	cmpl	$0, (%rdi)
	.loc	1 2678 38               ## /Users/ericlei/Documents/ImageProcessing/sources/lodepng.c:2678:38
	movb	%al, -9(%rbp)           ## 1-byte Spill
	je	LBB51_2
## BB#1:
	.loc	1 2678 41 discriminator 1 ## /Users/ericlei/Documents/ImageProcessing/sources/lodepng.c:2678:41
	movq	-8(%rbp), %rax
	.loc	1 2678 57 discriminator 1 ## /Users/ericlei/Documents/ImageProcessing/sources/lodepng.c:2678:57
	cmpl	$4, (%rax)
	sete	%cl
	movb	%cl, -9(%rbp)           ## 1-byte Spill
LBB51_2:
	movb	-9(%rbp), %al           ## 1-byte Reload
	.loc	1 2678 38 discriminator 2 ## /Users/ericlei/Documents/ImageProcessing/sources/lodepng.c:2678:38
	andb	$1, %al
	movzbl	%al, %eax
	.loc	1 2678 3 discriminator 2 ## /Users/ericlei/Documents/ImageProcessing/sources/lodepng.c:2678:3
	popq	%rbp
	retq
Ltmp590:
Lfunc_end51:
	.cfi_endproc

	.globl	_lodepng_is_alpha_type
	.p2align	4, 0x90
_lodepng_is_alpha_type:                 ## @lodepng_is_alpha_type
Lfunc_begin52:
	.loc	1 2682 0 is_stmt 1      ## /Users/ericlei/Documents/ImageProcessing/sources/lodepng.c:2682:0
	.cfi_startproc
## BB#0:
	pushq	%rbp
Ltmp591:
	.cfi_def_cfa_offset 16
Ltmp592:
	.cfi_offset %rbp, -16
	movq	%rsp, %rbp
Ltmp593:
	.cfi_def_cfa_register %rbp
	movq	%rdi, -8(%rbp)
Ltmp594:
	.loc	1 2683 11 prologue_end  ## /Users/ericlei/Documents/ImageProcessing/sources/lodepng.c:2683:11
	movq	-8(%rbp), %rdi
	.loc	1 2683 17 is_stmt 0     ## /Users/ericlei/Documents/ImageProcessing/sources/lodepng.c:2683:17
	movl	(%rdi), %eax
	.loc	1 2683 27               ## /Users/ericlei/Documents/ImageProcessing/sources/lodepng.c:2683:27
	andl	$4, %eax
	.loc	1 2683 32               ## /Users/ericlei/Documents/ImageProcessing/sources/lodepng.c:2683:32
	cmpl	$0, %eax
	setne	%cl
	andb	$1, %cl
	movzbl	%cl, %eax
	.loc	1 2683 3                ## /Users/ericlei/Documents/ImageProcessing/sources/lodepng.c:2683:3
	popq	%rbp
	retq
Ltmp595:
Lfunc_end52:
	.cfi_endproc

	.globl	_lodepng_is_palette_type
	.p2align	4, 0x90
_lodepng_is_palette_type:               ## @lodepng_is_palette_type
Lfunc_begin53:
	.loc	1 2687 0 is_stmt 1      ## /Users/ericlei/Documents/ImageProcessing/sources/lodepng.c:2687:0
	.cfi_startproc
## BB#0:
	pushq	%rbp
Ltmp596:
	.cfi_def_cfa_offset 16
Ltmp597:
	.cfi_offset %rbp, -16
	movq	%rsp, %rbp
Ltmp598:
	.cfi_def_cfa_register %rbp
	movq	%rdi, -8(%rbp)
Ltmp599:
	.loc	1 2688 10 prologue_end  ## /Users/ericlei/Documents/ImageProcessing/sources/lodepng.c:2688:10
	movq	-8(%rbp), %rdi
	.loc	1 2688 26 is_stmt 0     ## /Users/ericlei/Documents/ImageProcessing/sources/lodepng.c:2688:26
	cmpl	$3, (%rdi)
	sete	%al
	andb	$1, %al
	movzbl	%al, %eax
	.loc	1 2688 3                ## /Users/ericlei/Documents/ImageProcessing/sources/lodepng.c:2688:3
	popq	%rbp
	retq
Ltmp600:
Lfunc_end53:
	.cfi_endproc

	.globl	_lodepng_has_palette_alpha
	.p2align	4, 0x90
_lodepng_has_palette_alpha:             ## @lodepng_has_palette_alpha
Lfunc_begin54:
	.loc	1 2692 0 is_stmt 1      ## /Users/ericlei/Documents/ImageProcessing/sources/lodepng.c:2692:0
	.cfi_startproc
## BB#0:
	pushq	%rbp
Ltmp601:
	.cfi_def_cfa_offset 16
Ltmp602:
	.cfi_offset %rbp, -16
	movq	%rsp, %rbp
Ltmp603:
	.cfi_def_cfa_register %rbp
	movq	%rdi, -16(%rbp)
Ltmp604:
	.loc	1 2694 9 prologue_end   ## /Users/ericlei/Documents/ImageProcessing/sources/lodepng.c:2694:9
	movq	$0, -24(%rbp)
LBB54_1:                                ## =>This Inner Loop Header: Depth=1
Ltmp605:
	.loc	1 2694 14 is_stmt 0 discriminator 1 ## /Users/ericlei/Documents/ImageProcessing/sources/lodepng.c:2694:14
	movq	-24(%rbp), %rax
	.loc	1 2694 19 discriminator 1 ## /Users/ericlei/Documents/ImageProcessing/sources/lodepng.c:2694:19
	movq	-16(%rbp), %rcx
	.loc	1 2694 16 discriminator 1 ## /Users/ericlei/Documents/ImageProcessing/sources/lodepng.c:2694:16
	cmpq	16(%rcx), %rax
Ltmp606:
	.loc	1 2694 3 discriminator 1 ## /Users/ericlei/Documents/ImageProcessing/sources/lodepng.c:2694:3
	je	LBB54_6
## BB#2:                                ##   in Loop: Header=BB54_1 Depth=1
Ltmp607:
	.loc	1 2696 22 is_stmt 1     ## /Users/ericlei/Documents/ImageProcessing/sources/lodepng.c:2696:22
	movq	-24(%rbp), %rax
	.loc	1 2696 24 is_stmt 0     ## /Users/ericlei/Documents/ImageProcessing/sources/lodepng.c:2696:24
	shlq	$2, %rax
	.loc	1 2696 8                ## /Users/ericlei/Documents/ImageProcessing/sources/lodepng.c:2696:8
	movq	-16(%rbp), %rcx
	.loc	1 2696 14               ## /Users/ericlei/Documents/ImageProcessing/sources/lodepng.c:2696:14
	movq	8(%rcx), %rcx
	.loc	1 2696 8                ## /Users/ericlei/Documents/ImageProcessing/sources/lodepng.c:2696:8
	movzbl	3(%rcx,%rax), %edx
	.loc	1 2696 33               ## /Users/ericlei/Documents/ImageProcessing/sources/lodepng.c:2696:33
	cmpl	$255, %edx
Ltmp608:
	.loc	1 2696 8                ## /Users/ericlei/Documents/ImageProcessing/sources/lodepng.c:2696:8
	jge	LBB54_4
## BB#3:
Ltmp609:
	.loc	1 2696 40 discriminator 1 ## /Users/ericlei/Documents/ImageProcessing/sources/lodepng.c:2696:40
	movl	$1, -4(%rbp)
	jmp	LBB54_7
Ltmp610:
LBB54_4:                                ##   in Loop: Header=BB54_1 Depth=1
	.loc	1 2697 3 is_stmt 1      ## /Users/ericlei/Documents/ImageProcessing/sources/lodepng.c:2697:3
	jmp	LBB54_5
Ltmp611:
LBB54_5:                                ##   in Loop: Header=BB54_1 Depth=1
	.loc	1 2694 38 discriminator 2 ## /Users/ericlei/Documents/ImageProcessing/sources/lodepng.c:2694:38
	movq	-24(%rbp), %rax
	addq	$1, %rax
	movq	%rax, -24(%rbp)
	.loc	1 2694 3 is_stmt 0 discriminator 2 ## /Users/ericlei/Documents/ImageProcessing/sources/lodepng.c:2694:3
	jmp	LBB54_1
Ltmp612:
LBB54_6:
	.loc	1 2698 3 is_stmt 1      ## /Users/ericlei/Documents/ImageProcessing/sources/lodepng.c:2698:3
	movl	$0, -4(%rbp)
LBB54_7:
	.loc	1 2699 1                ## /Users/ericlei/Documents/ImageProcessing/sources/lodepng.c:2699:1
	movl	-4(%rbp), %eax
	popq	%rbp
	retq
Ltmp613:
Lfunc_end54:
	.cfi_endproc

	.globl	_lodepng_can_have_alpha
	.p2align	4, 0x90
_lodepng_can_have_alpha:                ## @lodepng_can_have_alpha
Lfunc_begin55:
	.loc	1 2702 0                ## /Users/ericlei/Documents/ImageProcessing/sources/lodepng.c:2702:0
	.cfi_startproc
## BB#0:
	pushq	%rbp
Ltmp614:
	.cfi_def_cfa_offset 16
Ltmp615:
	.cfi_offset %rbp, -16
	movq	%rsp, %rbp
Ltmp616:
	.cfi_def_cfa_register %rbp
	subq	$16, %rsp
	movb	$1, %al
	movq	%rdi, -8(%rbp)
Ltmp617:
	.loc	1 2703 10 prologue_end  ## /Users/ericlei/Documents/ImageProcessing/sources/lodepng.c:2703:10
	movq	-8(%rbp), %rdi
	cmpl	$0, 24(%rdi)
	.loc	1 2704 7                ## /Users/ericlei/Documents/ImageProcessing/sources/lodepng.c:2704:7
	movb	%al, -9(%rbp)           ## 1-byte Spill
	jne	LBB55_3
## BB#1:
	.loc	1 2704 32 is_stmt 0 discriminator 1 ## /Users/ericlei/Documents/ImageProcessing/sources/lodepng.c:2704:32
	movq	-8(%rbp), %rdi
	.loc	1 2704 10 discriminator 1 ## /Users/ericlei/Documents/ImageProcessing/sources/lodepng.c:2704:10
	callq	_lodepng_is_alpha_type
	movb	$1, %cl
	cmpl	$0, %eax
	.loc	1 2705 7 is_stmt 1      ## /Users/ericlei/Documents/ImageProcessing/sources/lodepng.c:2705:7
	movb	%cl, -9(%rbp)           ## 1-byte Spill
	jne	LBB55_3
## BB#2:
	.loc	1 2705 36 is_stmt 0 discriminator 1 ## /Users/ericlei/Documents/ImageProcessing/sources/lodepng.c:2705:36
	movq	-8(%rbp), %rdi
	.loc	1 2705 10 discriminator 1 ## /Users/ericlei/Documents/ImageProcessing/sources/lodepng.c:2705:10
	callq	_lodepng_has_palette_alpha
	.loc	1 2705 7 discriminator 1 ## /Users/ericlei/Documents/ImageProcessing/sources/lodepng.c:2705:7
	cmpl	$0, %eax
	setne	%cl
	movb	%cl, -9(%rbp)           ## 1-byte Spill
LBB55_3:
	movb	-9(%rbp), %al           ## 1-byte Reload
	.loc	1 2705 7 discriminator 2 ## /Users/ericlei/Documents/ImageProcessing/sources/lodepng.c:2705:7
	andb	$1, %al
	movzbl	%al, %eax
	.loc	1 2703 3 is_stmt 1 discriminator 1 ## /Users/ericlei/Documents/ImageProcessing/sources/lodepng.c:2703:3
	addq	$16, %rsp
	popq	%rbp
	retq
Ltmp618:
Lfunc_end55:
	.cfi_endproc

	.globl	_lodepng_get_raw_size
	.p2align	4, 0x90
_lodepng_get_raw_size:                  ## @lodepng_get_raw_size
Lfunc_begin56:
	.loc	1 2709 0                ## /Users/ericlei/Documents/ImageProcessing/sources/lodepng.c:2709:0
	.cfi_startproc
## BB#0:
	pushq	%rbp
Ltmp619:
	.cfi_def_cfa_offset 16
Ltmp620:
	.cfi_offset %rbp, -16
	movq	%rsp, %rbp
Ltmp621:
	.cfi_def_cfa_register %rbp
	subq	$32, %rsp
	movl	%edi, -4(%rbp)
	movl	%esi, -8(%rbp)
	movq	%rdx, -16(%rbp)
Ltmp622:
	.loc	1 2711 32 prologue_end  ## /Users/ericlei/Documents/ImageProcessing/sources/lodepng.c:2711:32
	movq	-16(%rbp), %rdi
	.loc	1 2711 16 is_stmt 0     ## /Users/ericlei/Documents/ImageProcessing/sources/lodepng.c:2711:16
	callq	_lodepng_get_bpp
	movl	%eax, %eax
	movl	%eax, %edx
	.loc	1 2711 10               ## /Users/ericlei/Documents/ImageProcessing/sources/lodepng.c:2711:10
	movq	%rdx, -24(%rbp)
	.loc	1 2712 14 is_stmt 1     ## /Users/ericlei/Documents/ImageProcessing/sources/lodepng.c:2712:14
	movl	-4(%rbp), %eax
	.loc	1 2712 16 is_stmt 0     ## /Users/ericlei/Documents/ImageProcessing/sources/lodepng.c:2712:16
	imull	-8(%rbp), %eax
	.loc	1 2712 14               ## /Users/ericlei/Documents/ImageProcessing/sources/lodepng.c:2712:14
	movl	%eax, %eax
	movl	%eax, %edx
	.loc	1 2712 10               ## /Users/ericlei/Documents/ImageProcessing/sources/lodepng.c:2712:10
	movq	%rdx, -32(%rbp)
	.loc	1 2713 12 is_stmt 1     ## /Users/ericlei/Documents/ImageProcessing/sources/lodepng.c:2713:12
	movq	-32(%rbp), %rdx
	.loc	1 2713 14 is_stmt 0     ## /Users/ericlei/Documents/ImageProcessing/sources/lodepng.c:2713:14
	shrq	$3, %rdx
	.loc	1 2713 19               ## /Users/ericlei/Documents/ImageProcessing/sources/lodepng.c:2713:19
	imulq	-24(%rbp), %rdx
	.loc	1 2713 30               ## /Users/ericlei/Documents/ImageProcessing/sources/lodepng.c:2713:30
	movq	-32(%rbp), %rdi
	.loc	1 2713 32               ## /Users/ericlei/Documents/ImageProcessing/sources/lodepng.c:2713:32
	andq	$7, %rdi
	.loc	1 2713 37               ## /Users/ericlei/Documents/ImageProcessing/sources/lodepng.c:2713:37
	imulq	-24(%rbp), %rdi
	.loc	1 2713 43               ## /Users/ericlei/Documents/ImageProcessing/sources/lodepng.c:2713:43
	addq	$7, %rdi
	.loc	1 2713 48               ## /Users/ericlei/Documents/ImageProcessing/sources/lodepng.c:2713:48
	shrq	$3, %rdi
	.loc	1 2713 26               ## /Users/ericlei/Documents/ImageProcessing/sources/lodepng.c:2713:26
	addq	%rdi, %rdx
	.loc	1 2713 3                ## /Users/ericlei/Documents/ImageProcessing/sources/lodepng.c:2713:3
	movq	%rdx, %rax
	addq	$32, %rsp
	popq	%rbp
	retq
Ltmp623:
Lfunc_end56:
	.cfi_endproc

	.globl	_lodepng_get_raw_size_lct
	.p2align	4, 0x90
_lodepng_get_raw_size_lct:              ## @lodepng_get_raw_size_lct
Lfunc_begin57:
	.loc	1 2717 0 is_stmt 1      ## /Users/ericlei/Documents/ImageProcessing/sources/lodepng.c:2717:0
	.cfi_startproc
## BB#0:
	pushq	%rbp
Ltmp624:
	.cfi_def_cfa_offset 16
Ltmp625:
	.cfi_offset %rbp, -16
	movq	%rsp, %rbp
Ltmp626:
	.cfi_def_cfa_register %rbp
	subq	$32, %rsp
	movl	%edi, -4(%rbp)
	movl	%esi, -8(%rbp)
	movl	%edx, -12(%rbp)
	movl	%ecx, -16(%rbp)
Ltmp627:
	.loc	1 2719 36 prologue_end  ## /Users/ericlei/Documents/ImageProcessing/sources/lodepng.c:2719:36
	movl	-12(%rbp), %edi
	.loc	1 2719 47 is_stmt 0     ## /Users/ericlei/Documents/ImageProcessing/sources/lodepng.c:2719:47
	movl	-16(%rbp), %esi
	.loc	1 2719 16               ## /Users/ericlei/Documents/ImageProcessing/sources/lodepng.c:2719:16
	callq	_lodepng_get_bpp_lct
	movl	%eax, %eax
	movl	%eax, %r8d
	.loc	1 2719 10               ## /Users/ericlei/Documents/ImageProcessing/sources/lodepng.c:2719:10
	movq	%r8, -24(%rbp)
	.loc	1 2720 14 is_stmt 1     ## /Users/ericlei/Documents/ImageProcessing/sources/lodepng.c:2720:14
	movl	-4(%rbp), %eax
	.loc	1 2720 16 is_stmt 0     ## /Users/ericlei/Documents/ImageProcessing/sources/lodepng.c:2720:16
	imull	-8(%rbp), %eax
	.loc	1 2720 14               ## /Users/ericlei/Documents/ImageProcessing/sources/lodepng.c:2720:14
	movl	%eax, %eax
	movl	%eax, %r8d
	.loc	1 2720 10               ## /Users/ericlei/Documents/ImageProcessing/sources/lodepng.c:2720:10
	movq	%r8, -32(%rbp)
	.loc	1 2721 12 is_stmt 1     ## /Users/ericlei/Documents/ImageProcessing/sources/lodepng.c:2721:12
	movq	-32(%rbp), %r8
	.loc	1 2721 14 is_stmt 0     ## /Users/ericlei/Documents/ImageProcessing/sources/lodepng.c:2721:14
	shrq	$3, %r8
	.loc	1 2721 19               ## /Users/ericlei/Documents/ImageProcessing/sources/lodepng.c:2721:19
	imulq	-24(%rbp), %r8
	.loc	1 2721 30               ## /Users/ericlei/Documents/ImageProcessing/sources/lodepng.c:2721:30
	movq	-32(%rbp), %r9
	.loc	1 2721 32               ## /Users/ericlei/Documents/ImageProcessing/sources/lodepng.c:2721:32
	andq	$7, %r9
	.loc	1 2721 37               ## /Users/ericlei/Documents/ImageProcessing/sources/lodepng.c:2721:37
	imulq	-24(%rbp), %r9
	.loc	1 2721 43               ## /Users/ericlei/Documents/ImageProcessing/sources/lodepng.c:2721:43
	addq	$7, %r9
	.loc	1 2721 48               ## /Users/ericlei/Documents/ImageProcessing/sources/lodepng.c:2721:48
	shrq	$3, %r9
	.loc	1 2721 26               ## /Users/ericlei/Documents/ImageProcessing/sources/lodepng.c:2721:26
	addq	%r9, %r8
	.loc	1 2721 3                ## /Users/ericlei/Documents/ImageProcessing/sources/lodepng.c:2721:3
	movq	%r8, %rax
	addq	$32, %rsp
	popq	%rbp
	retq
Ltmp628:
Lfunc_end57:
	.cfi_endproc

	.globl	_lodepng_clear_text
	.p2align	4, 0x90
_lodepng_clear_text:                    ## @lodepng_clear_text
Lfunc_begin58:
	.loc	1 2809 0 is_stmt 1      ## /Users/ericlei/Documents/ImageProcessing/sources/lodepng.c:2809:0
	.cfi_startproc
## BB#0:
	pushq	%rbp
Ltmp629:
	.cfi_def_cfa_offset 16
Ltmp630:
	.cfi_offset %rbp, -16
	movq	%rsp, %rbp
Ltmp631:
	.cfi_def_cfa_register %rbp
	subq	$16, %rsp
	movq	%rdi, -8(%rbp)
Ltmp632:
	.loc	1 2810 23 prologue_end  ## /Users/ericlei/Documents/ImageProcessing/sources/lodepng.c:2810:23
	movq	-8(%rbp), %rdi
	.loc	1 2810 3 is_stmt 0      ## /Users/ericlei/Documents/ImageProcessing/sources/lodepng.c:2810:3
	callq	_LodePNGText_cleanup
	.loc	1 2811 1 is_stmt 1      ## /Users/ericlei/Documents/ImageProcessing/sources/lodepng.c:2811:1
	addq	$16, %rsp
	popq	%rbp
	retq
Ltmp633:
Lfunc_end58:
	.cfi_endproc

	.p2align	4, 0x90
_LodePNGText_cleanup:                   ## @LodePNGText_cleanup
Lfunc_begin59:
	.loc	1 2784 0                ## /Users/ericlei/Documents/ImageProcessing/sources/lodepng.c:2784:0
	.cfi_startproc
## BB#0:
	pushq	%rbp
Ltmp634:
	.cfi_def_cfa_offset 16
Ltmp635:
	.cfi_offset %rbp, -16
	movq	%rsp, %rbp
Ltmp636:
	.cfi_def_cfa_register %rbp
	subq	$16, %rsp
	movq	%rdi, -8(%rbp)
Ltmp637:
	.loc	1 2786 9 prologue_end   ## /Users/ericlei/Documents/ImageProcessing/sources/lodepng.c:2786:9
	movq	$0, -16(%rbp)
LBB59_1:                                ## =>This Inner Loop Header: Depth=1
Ltmp638:
	.loc	1 2786 14 is_stmt 0 discriminator 1 ## /Users/ericlei/Documents/ImageProcessing/sources/lodepng.c:2786:14
	movq	-16(%rbp), %rax
	.loc	1 2786 19 discriminator 1 ## /Users/ericlei/Documents/ImageProcessing/sources/lodepng.c:2786:19
	movq	-8(%rbp), %rcx
	.loc	1 2786 16 discriminator 1 ## /Users/ericlei/Documents/ImageProcessing/sources/lodepng.c:2786:16
	cmpq	72(%rcx), %rax
Ltmp639:
	.loc	1 2786 3 discriminator 1 ## /Users/ericlei/Documents/ImageProcessing/sources/lodepng.c:2786:3
	je	LBB59_4
## BB#2:                                ##   in Loop: Header=BB59_1 Depth=1
Ltmp640:
	.loc	1 2788 37 is_stmt 1     ## /Users/ericlei/Documents/ImageProcessing/sources/lodepng.c:2788:37
	movq	-16(%rbp), %rax
	.loc	1 2788 21 is_stmt 0     ## /Users/ericlei/Documents/ImageProcessing/sources/lodepng.c:2788:21
	movq	-8(%rbp), %rcx
	shlq	$3, %rax
	addq	80(%rcx), %rax
	.loc	1 2788 5                ## /Users/ericlei/Documents/ImageProcessing/sources/lodepng.c:2788:5
	movq	%rax, %rdi
	callq	_string_cleanup
	.loc	1 2789 40 is_stmt 1     ## /Users/ericlei/Documents/ImageProcessing/sources/lodepng.c:2789:40
	movq	-16(%rbp), %rax
	.loc	1 2789 21 is_stmt 0     ## /Users/ericlei/Documents/ImageProcessing/sources/lodepng.c:2789:21
	movq	-8(%rbp), %rcx
	shlq	$3, %rax
	addq	88(%rcx), %rax
	.loc	1 2789 5                ## /Users/ericlei/Documents/ImageProcessing/sources/lodepng.c:2789:5
	movq	%rax, %rdi
	callq	_string_cleanup
Ltmp641:
## BB#3:                                ##   in Loop: Header=BB59_1 Depth=1
	.loc	1 2786 35 is_stmt 1 discriminator 2 ## /Users/ericlei/Documents/ImageProcessing/sources/lodepng.c:2786:35
	movq	-16(%rbp), %rax
	addq	$1, %rax
	movq	%rax, -16(%rbp)
	.loc	1 2786 3 is_stmt 0 discriminator 2 ## /Users/ericlei/Documents/ImageProcessing/sources/lodepng.c:2786:3
	jmp	LBB59_1
Ltmp642:
LBB59_4:
	.loc	1 2791 16 is_stmt 1     ## /Users/ericlei/Documents/ImageProcessing/sources/lodepng.c:2791:16
	movq	-8(%rbp), %rax
	.loc	1 2791 22 is_stmt 0     ## /Users/ericlei/Documents/ImageProcessing/sources/lodepng.c:2791:22
	movq	80(%rax), %rax
	.loc	1 2791 3                ## /Users/ericlei/Documents/ImageProcessing/sources/lodepng.c:2791:3
	movq	%rax, %rdi
	callq	_lodepng_free
	.loc	1 2792 16 is_stmt 1     ## /Users/ericlei/Documents/ImageProcessing/sources/lodepng.c:2792:16
	movq	-8(%rbp), %rax
	.loc	1 2792 22 is_stmt 0     ## /Users/ericlei/Documents/ImageProcessing/sources/lodepng.c:2792:22
	movq	88(%rax), %rax
	.loc	1 2792 3                ## /Users/ericlei/Documents/ImageProcessing/sources/lodepng.c:2792:3
	movq	%rax, %rdi
	callq	_lodepng_free
	.loc	1 2793 1 is_stmt 1      ## /Users/ericlei/Documents/ImageProcessing/sources/lodepng.c:2793:1
	addq	$16, %rsp
	popq	%rbp
	retq
Ltmp643:
Lfunc_end59:
	.cfi_endproc

	.globl	_lodepng_add_text
	.p2align	4, 0x90
_lodepng_add_text:                      ## @lodepng_add_text
Lfunc_begin60:
	.loc	1 2814 0                ## /Users/ericlei/Documents/ImageProcessing/sources/lodepng.c:2814:0
	.cfi_startproc
## BB#0:
	pushq	%rbp
Ltmp644:
	.cfi_def_cfa_offset 16
Ltmp645:
	.cfi_offset %rbp, -16
	movq	%rsp, %rbp
Ltmp646:
	.cfi_def_cfa_register %rbp
	subq	$48, %rsp
	movq	%rdi, -16(%rbp)
	movq	%rsi, -24(%rbp)
	movq	%rdx, -32(%rbp)
Ltmp647:
	.loc	1 2815 46 prologue_end  ## /Users/ericlei/Documents/ImageProcessing/sources/lodepng.c:2815:46
	movq	-16(%rbp), %rdx
	.loc	1 2815 52 is_stmt 0     ## /Users/ericlei/Documents/ImageProcessing/sources/lodepng.c:2815:52
	movq	80(%rdx), %rdx
	.loc	1 2815 80               ## /Users/ericlei/Documents/ImageProcessing/sources/lodepng.c:2815:80
	movq	-16(%rbp), %rsi
	.loc	1 2815 86               ## /Users/ericlei/Documents/ImageProcessing/sources/lodepng.c:2815:86
	movq	72(%rsi), %rsi
	.loc	1 2815 95               ## /Users/ericlei/Documents/ImageProcessing/sources/lodepng.c:2815:95
	addq	$1, %rsi
	.loc	1 2815 77               ## /Users/ericlei/Documents/ImageProcessing/sources/lodepng.c:2815:77
	shlq	$3, %rsi
	.loc	1 2815 30               ## /Users/ericlei/Documents/ImageProcessing/sources/lodepng.c:2815:30
	movq	%rdx, %rdi
	callq	_lodepng_realloc
	.loc	1 2815 10               ## /Users/ericlei/Documents/ImageProcessing/sources/lodepng.c:2815:10
	movq	%rax, -40(%rbp)
	.loc	1 2816 49 is_stmt 1     ## /Users/ericlei/Documents/ImageProcessing/sources/lodepng.c:2816:49
	movq	-16(%rbp), %rax
	.loc	1 2816 55 is_stmt 0     ## /Users/ericlei/Documents/ImageProcessing/sources/lodepng.c:2816:55
	movq	88(%rax), %rax
	.loc	1 2816 86               ## /Users/ericlei/Documents/ImageProcessing/sources/lodepng.c:2816:86
	movq	-16(%rbp), %rdx
	.loc	1 2816 92               ## /Users/ericlei/Documents/ImageProcessing/sources/lodepng.c:2816:92
	movq	72(%rdx), %rdx
	.loc	1 2816 101              ## /Users/ericlei/Documents/ImageProcessing/sources/lodepng.c:2816:101
	addq	$1, %rdx
	.loc	1 2816 83               ## /Users/ericlei/Documents/ImageProcessing/sources/lodepng.c:2816:83
	shlq	$3, %rdx
	.loc	1 2816 33               ## /Users/ericlei/Documents/ImageProcessing/sources/lodepng.c:2816:33
	movq	%rax, %rdi
	movq	%rdx, %rsi
	callq	_lodepng_realloc
	.loc	1 2816 10               ## /Users/ericlei/Documents/ImageProcessing/sources/lodepng.c:2816:10
	movq	%rax, -48(%rbp)
Ltmp648:
	.loc	1 2817 7 is_stmt 1      ## /Users/ericlei/Documents/ImageProcessing/sources/lodepng.c:2817:7
	cmpq	$0, -40(%rbp)
	.loc	1 2817 16 is_stmt 0     ## /Users/ericlei/Documents/ImageProcessing/sources/lodepng.c:2817:16
	je	LBB60_2
## BB#1:
	.loc	1 2817 20 discriminator 1 ## /Users/ericlei/Documents/ImageProcessing/sources/lodepng.c:2817:20
	cmpq	$0, -48(%rbp)
Ltmp649:
	.loc	1 2817 6 discriminator 1 ## /Users/ericlei/Documents/ImageProcessing/sources/lodepng.c:2817:6
	jne	LBB60_3
LBB60_2:
Ltmp650:
	.loc	1 2819 18 is_stmt 1     ## /Users/ericlei/Documents/ImageProcessing/sources/lodepng.c:2819:18
	movq	-40(%rbp), %rax
	.loc	1 2819 5 is_stmt 0      ## /Users/ericlei/Documents/ImageProcessing/sources/lodepng.c:2819:5
	movq	%rax, %rdi
	callq	_lodepng_free
	.loc	1 2820 18 is_stmt 1     ## /Users/ericlei/Documents/ImageProcessing/sources/lodepng.c:2820:18
	movq	-48(%rbp), %rax
	.loc	1 2820 5 is_stmt 0      ## /Users/ericlei/Documents/ImageProcessing/sources/lodepng.c:2820:5
	movq	%rax, %rdi
	callq	_lodepng_free
	.loc	1 2821 5 is_stmt 1      ## /Users/ericlei/Documents/ImageProcessing/sources/lodepng.c:2821:5
	movl	$83, -4(%rbp)
	jmp	LBB60_4
Ltmp651:
LBB60_3:
	.loc	1 2824 5                ## /Users/ericlei/Documents/ImageProcessing/sources/lodepng.c:2824:5
	movq	-16(%rbp), %rax
	.loc	1 2824 3 is_stmt 0      ## /Users/ericlei/Documents/ImageProcessing/sources/lodepng.c:2824:3
	movq	72(%rax), %rcx
	addq	$1, %rcx
	movq	%rcx, 72(%rax)
	.loc	1 2825 21 is_stmt 1     ## /Users/ericlei/Documents/ImageProcessing/sources/lodepng.c:2825:21
	movq	-40(%rbp), %rax
	.loc	1 2825 3 is_stmt 0      ## /Users/ericlei/Documents/ImageProcessing/sources/lodepng.c:2825:3
	movq	-16(%rbp), %rcx
	.loc	1 2825 19               ## /Users/ericlei/Documents/ImageProcessing/sources/lodepng.c:2825:19
	movq	%rax, 80(%rcx)
	.loc	1 2826 24 is_stmt 1     ## /Users/ericlei/Documents/ImageProcessing/sources/lodepng.c:2826:24
	movq	-48(%rbp), %rax
	.loc	1 2826 3 is_stmt 0      ## /Users/ericlei/Documents/ImageProcessing/sources/lodepng.c:2826:3
	movq	-16(%rbp), %rcx
	.loc	1 2826 22               ## /Users/ericlei/Documents/ImageProcessing/sources/lodepng.c:2826:22
	movq	%rax, 88(%rcx)
	.loc	1 2828 32 is_stmt 1     ## /Users/ericlei/Documents/ImageProcessing/sources/lodepng.c:2828:32
	movq	-16(%rbp), %rax
	.loc	1 2828 38 is_stmt 0     ## /Users/ericlei/Documents/ImageProcessing/sources/lodepng.c:2828:38
	movq	72(%rax), %rax
	.loc	1 2828 47               ## /Users/ericlei/Documents/ImageProcessing/sources/lodepng.c:2828:47
	subq	$1, %rax
	.loc	1 2828 16               ## /Users/ericlei/Documents/ImageProcessing/sources/lodepng.c:2828:16
	movq	-16(%rbp), %rcx
	shlq	$3, %rax
	addq	80(%rcx), %rax
	.loc	1 2828 3                ## /Users/ericlei/Documents/ImageProcessing/sources/lodepng.c:2828:3
	movq	%rax, %rdi
	callq	_string_init
	.loc	1 2829 31 is_stmt 1     ## /Users/ericlei/Documents/ImageProcessing/sources/lodepng.c:2829:31
	movq	-16(%rbp), %rax
	.loc	1 2829 37 is_stmt 0     ## /Users/ericlei/Documents/ImageProcessing/sources/lodepng.c:2829:37
	movq	72(%rax), %rax
	.loc	1 2829 46               ## /Users/ericlei/Documents/ImageProcessing/sources/lodepng.c:2829:46
	subq	$1, %rax
	.loc	1 2829 15               ## /Users/ericlei/Documents/ImageProcessing/sources/lodepng.c:2829:15
	movq	-16(%rbp), %rcx
	shlq	$3, %rax
	addq	80(%rcx), %rax
	.loc	1 2829 52               ## /Users/ericlei/Documents/ImageProcessing/sources/lodepng.c:2829:52
	movq	-24(%rbp), %rsi
	.loc	1 2829 3                ## /Users/ericlei/Documents/ImageProcessing/sources/lodepng.c:2829:3
	movq	%rax, %rdi
	callq	_string_set
	.loc	1 2831 35 is_stmt 1     ## /Users/ericlei/Documents/ImageProcessing/sources/lodepng.c:2831:35
	movq	-16(%rbp), %rax
	.loc	1 2831 41 is_stmt 0     ## /Users/ericlei/Documents/ImageProcessing/sources/lodepng.c:2831:41
	movq	72(%rax), %rax
	.loc	1 2831 50               ## /Users/ericlei/Documents/ImageProcessing/sources/lodepng.c:2831:50
	subq	$1, %rax
	.loc	1 2831 16               ## /Users/ericlei/Documents/ImageProcessing/sources/lodepng.c:2831:16
	movq	-16(%rbp), %rcx
	shlq	$3, %rax
	addq	88(%rcx), %rax
	.loc	1 2831 3                ## /Users/ericlei/Documents/ImageProcessing/sources/lodepng.c:2831:3
	movq	%rax, %rdi
	callq	_string_init
	.loc	1 2832 34 is_stmt 1     ## /Users/ericlei/Documents/ImageProcessing/sources/lodepng.c:2832:34
	movq	-16(%rbp), %rax
	.loc	1 2832 40 is_stmt 0     ## /Users/ericlei/Documents/ImageProcessing/sources/lodepng.c:2832:40
	movq	72(%rax), %rax
	.loc	1 2832 49               ## /Users/ericlei/Documents/ImageProcessing/sources/lodepng.c:2832:49
	subq	$1, %rax
	.loc	1 2832 15               ## /Users/ericlei/Documents/ImageProcessing/sources/lodepng.c:2832:15
	movq	-16(%rbp), %rcx
	shlq	$3, %rax
	addq	88(%rcx), %rax
	.loc	1 2832 55               ## /Users/ericlei/Documents/ImageProcessing/sources/lodepng.c:2832:55
	movq	-32(%rbp), %rsi
	.loc	1 2832 3                ## /Users/ericlei/Documents/ImageProcessing/sources/lodepng.c:2832:3
	movq	%rax, %rdi
	callq	_string_set
	.loc	1 2834 3 is_stmt 1      ## /Users/ericlei/Documents/ImageProcessing/sources/lodepng.c:2834:3
	movl	$0, -4(%rbp)
LBB60_4:
	.loc	1 2835 1                ## /Users/ericlei/Documents/ImageProcessing/sources/lodepng.c:2835:1
	movl	-4(%rbp), %eax
	addq	$48, %rsp
	popq	%rbp
	retq
Ltmp652:
Lfunc_end60:
	.cfi_endproc

	.p2align	4, 0x90
_string_init:                           ## @string_init
Lfunc_begin61:
	.loc	1 292 0                 ## /Users/ericlei/Documents/ImageProcessing/sources/lodepng.c:292:0
	.cfi_startproc
## BB#0:
	pushq	%rbp
Ltmp653:
	.cfi_def_cfa_offset 16
Ltmp654:
	.cfi_offset %rbp, -16
	movq	%rsp, %rbp
Ltmp655:
	.cfi_def_cfa_register %rbp
	subq	$16, %rsp
	xorl	%eax, %eax
	movl	%eax, %esi
	movq	%rdi, -8(%rbp)
Ltmp656:
	.loc	1 293 4 prologue_end    ## /Users/ericlei/Documents/ImageProcessing/sources/lodepng.c:293:4
	movq	-8(%rbp), %rdi
	.loc	1 293 8 is_stmt 0       ## /Users/ericlei/Documents/ImageProcessing/sources/lodepng.c:293:8
	movq	$0, (%rdi)
	.loc	1 294 17 is_stmt 1      ## /Users/ericlei/Documents/ImageProcessing/sources/lodepng.c:294:17
	movq	-8(%rbp), %rdi
	.loc	1 294 3 is_stmt 0       ## /Users/ericlei/Documents/ImageProcessing/sources/lodepng.c:294:3
	callq	_string_resize
	.loc	1 295 1 is_stmt 1       ## /Users/ericlei/Documents/ImageProcessing/sources/lodepng.c:295:1
	movl	%eax, -12(%rbp)         ## 4-byte Spill
	addq	$16, %rsp
	popq	%rbp
	retq
Ltmp657:
Lfunc_end61:
	.cfi_endproc

	.p2align	4, 0x90
_string_set:                            ## @string_set
Lfunc_begin62:
	.loc	1 305 0                 ## /Users/ericlei/Documents/ImageProcessing/sources/lodepng.c:305:0
	.cfi_startproc
## BB#0:
	pushq	%rbp
Ltmp658:
	.cfi_def_cfa_offset 16
Ltmp659:
	.cfi_offset %rbp, -16
	movq	%rsp, %rbp
Ltmp660:
	.cfi_def_cfa_register %rbp
	subq	$32, %rsp
	movq	%rdi, -8(%rbp)
	movq	%rsi, -16(%rbp)
Ltmp661:
	.loc	1 306 26 prologue_end   ## /Users/ericlei/Documents/ImageProcessing/sources/lodepng.c:306:26
	movq	-16(%rbp), %rdi
	.loc	1 306 19 is_stmt 0      ## /Users/ericlei/Documents/ImageProcessing/sources/lodepng.c:306:19
	callq	_strlen
	.loc	1 306 10                ## /Users/ericlei/Documents/ImageProcessing/sources/lodepng.c:306:10
	movq	%rax, -24(%rbp)
Ltmp662:
	.loc	1 307 20 is_stmt 1      ## /Users/ericlei/Documents/ImageProcessing/sources/lodepng.c:307:20
	movq	-8(%rbp), %rdi
	.loc	1 307 25 is_stmt 0      ## /Users/ericlei/Documents/ImageProcessing/sources/lodepng.c:307:25
	movq	-24(%rbp), %rsi
	.loc	1 307 6                 ## /Users/ericlei/Documents/ImageProcessing/sources/lodepng.c:307:6
	callq	_string_resize
	cmpl	$0, %eax
Ltmp663:
	.loc	1 307 6                 ## /Users/ericlei/Documents/ImageProcessing/sources/lodepng.c:307:6
	je	LBB62_6
## BB#1:
Ltmp664:
	.loc	1 309 11 is_stmt 1      ## /Users/ericlei/Documents/ImageProcessing/sources/lodepng.c:309:11
	movq	$0, -32(%rbp)
LBB62_2:                                ## =>This Inner Loop Header: Depth=1
Ltmp665:
	.loc	1 309 16 is_stmt 0 discriminator 1 ## /Users/ericlei/Documents/ImageProcessing/sources/lodepng.c:309:16
	movq	-32(%rbp), %rax
	.loc	1 309 18 discriminator 1 ## /Users/ericlei/Documents/ImageProcessing/sources/lodepng.c:309:18
	cmpq	-24(%rbp), %rax
Ltmp666:
	.loc	1 309 5 discriminator 1 ## /Users/ericlei/Documents/ImageProcessing/sources/lodepng.c:309:5
	je	LBB62_5
## BB#3:                                ##   in Loop: Header=BB62_2 Depth=1
Ltmp667:
	.loc	1 311 22 is_stmt 1      ## /Users/ericlei/Documents/ImageProcessing/sources/lodepng.c:311:22
	movq	-32(%rbp), %rax
	.loc	1 311 19 is_stmt 0      ## /Users/ericlei/Documents/ImageProcessing/sources/lodepng.c:311:19
	movq	-16(%rbp), %rcx
	movb	(%rcx,%rax), %dl
	.loc	1 311 14                ## /Users/ericlei/Documents/ImageProcessing/sources/lodepng.c:311:14
	movq	-32(%rbp), %rax
	.loc	1 311 9                 ## /Users/ericlei/Documents/ImageProcessing/sources/lodepng.c:311:9
	movq	-8(%rbp), %rcx
	.loc	1 311 8                 ## /Users/ericlei/Documents/ImageProcessing/sources/lodepng.c:311:8
	movq	(%rcx), %rcx
	.loc	1 311 17                ## /Users/ericlei/Documents/ImageProcessing/sources/lodepng.c:311:17
	movb	%dl, (%rcx,%rax)
Ltmp668:
## BB#4:                                ##   in Loop: Header=BB62_2 Depth=1
	.loc	1 309 29 is_stmt 1 discriminator 2 ## /Users/ericlei/Documents/ImageProcessing/sources/lodepng.c:309:29
	movq	-32(%rbp), %rax
	addq	$1, %rax
	movq	%rax, -32(%rbp)
	.loc	1 309 5 is_stmt 0 discriminator 2 ## /Users/ericlei/Documents/ImageProcessing/sources/lodepng.c:309:5
	jmp	LBB62_2
Ltmp669:
LBB62_5:
	.loc	1 313 3 is_stmt 1       ## /Users/ericlei/Documents/ImageProcessing/sources/lodepng.c:313:3
	jmp	LBB62_6
Ltmp670:
LBB62_6:
	.loc	1 314 1                 ## /Users/ericlei/Documents/ImageProcessing/sources/lodepng.c:314:1
	addq	$32, %rsp
	popq	%rbp
	retq
Ltmp671:
Lfunc_end62:
	.cfi_endproc

	.globl	_lodepng_clear_itext
	.p2align	4, 0x90
_lodepng_clear_itext:                   ## @lodepng_clear_itext
Lfunc_begin63:
	.loc	1 2881 0                ## /Users/ericlei/Documents/ImageProcessing/sources/lodepng.c:2881:0
	.cfi_startproc
## BB#0:
	pushq	%rbp
Ltmp672:
	.cfi_def_cfa_offset 16
Ltmp673:
	.cfi_offset %rbp, -16
	movq	%rsp, %rbp
Ltmp674:
	.cfi_def_cfa_register %rbp
	subq	$16, %rsp
	movq	%rdi, -8(%rbp)
Ltmp675:
	.loc	1 2882 24 prologue_end  ## /Users/ericlei/Documents/ImageProcessing/sources/lodepng.c:2882:24
	movq	-8(%rbp), %rdi
	.loc	1 2882 3 is_stmt 0      ## /Users/ericlei/Documents/ImageProcessing/sources/lodepng.c:2882:3
	callq	_LodePNGIText_cleanup
	.loc	1 2883 1 is_stmt 1      ## /Users/ericlei/Documents/ImageProcessing/sources/lodepng.c:2883:1
	addq	$16, %rsp
	popq	%rbp
	retq
Ltmp676:
Lfunc_end63:
	.cfi_endproc

	.p2align	4, 0x90
_LodePNGIText_cleanup:                  ## @LodePNGIText_cleanup
Lfunc_begin64:
	.loc	1 2849 0                ## /Users/ericlei/Documents/ImageProcessing/sources/lodepng.c:2849:0
	.cfi_startproc
## BB#0:
	pushq	%rbp
Ltmp677:
	.cfi_def_cfa_offset 16
Ltmp678:
	.cfi_offset %rbp, -16
	movq	%rsp, %rbp
Ltmp679:
	.cfi_def_cfa_register %rbp
	subq	$16, %rsp
	movq	%rdi, -8(%rbp)
Ltmp680:
	.loc	1 2851 9 prologue_end   ## /Users/ericlei/Documents/ImageProcessing/sources/lodepng.c:2851:9
	movq	$0, -16(%rbp)
LBB64_1:                                ## =>This Inner Loop Header: Depth=1
Ltmp681:
